Archive member included to satisfy reference by file (symbol)

bl2/ext/mcuboot/bootutil/libbootutil.a(fault_injection_hardening.o)
                              bl2/CMakeFiles/bl2.dir/src/security_cnt.o (FIH_FAILURE)
bl2/ext/mcuboot/bootutil/libbootutil.a(loader.o)
                              bl2/CMakeFiles/bl2.dir/ext/mcuboot/bl2_main.o (boot_go_for_image_id)
bl2/ext/mcuboot/bootutil/libbootutil.a(swap_scratch.o)
                              bl2/ext/mcuboot/bootutil/libbootutil.a(loader.o) (boot_status_internal_off)
bl2/ext/mcuboot/bootutil/libbootutil.a(tlv.o)
                              bl2/ext/mcuboot/bootutil/libbootutil.a(loader.o) (bootutil_tlv_iter_begin)
bl2/ext/mcuboot/bootutil/libbootutil.a(boot_record.o)
                              bl2/ext/mcuboot/bootutil/libbootutil.a(loader.o) (boot_save_boot_status)
bl2/ext/mcuboot/bootutil/libbootutil.a(bootutil_misc.o)
                              bl2/ext/mcuboot/bootutil/libbootutil.a(swap_scratch.o) (boot_status_entries)
bl2/ext/mcuboot/bootutil/libbootutil.a(bootutil_public.o)
                              bl2/ext/mcuboot/bootutil/libbootutil.a(bootutil_misc.o) (boot_swap_info_off)
bl2/ext/mcuboot/bootutil/libbootutil.a(image_validate.o)
                              bl2/ext/mcuboot/bootutil/libbootutil.a(loader.o) (bootutil_get_img_security_cnt)
bl2/ext/mcuboot/bootutil/libbootutil.a(image_ecdsa.o)
                              bl2/ext/mcuboot/bootutil/libbootutil.a(image_validate.o) (bootutil_verify_sig)
platform/libplatform_bl2.a(system_stm32l5xx.o)
                              bl2/CMakeFiles/bl2.dir/__/platform/ext/target/stm/common/stm32l5xx/Device/Source/startup_stm32l5xx_bl2.o (SystemInit)
platform/libplatform_bl2.a(boot_hal_bl2.o)
                              bl2/CMakeFiles/bl2.dir/ext/mcuboot/bl2_main.o (boot_platform_quit)
platform/libplatform_bl2.a(tfm_low_level_security.o)
                              platform/libplatform_bl2.a(boot_hal_bl2.o) (TFM_LL_SECU_ApplyRunTimeProtections)
platform/libplatform_bl2.a(low_level_flash.o)
                              bl2/CMakeFiles/bl2.dir/src/default_flash_map.o (TFM_Driver_FLASH0)
platform/libplatform_bl2.a(stm32l5xx_hal.o)
                              platform/libplatform_bl2.a(boot_hal_bl2.o) (HAL_Init)
platform/libplatform_bl2.a(stm32l5xx_hal_flash.o)
                              platform/libplatform_bl2.a(tfm_low_level_security.o) (HAL_FLASH_Unlock)
platform/libplatform_bl2.a(stm32l5xx_hal_flash_ex.o)
                              platform/libplatform_bl2.a(tfm_low_level_security.o) (HAL_FLASHEx_OBProgram)
platform/libplatform_bl2.a(stm32l5xx_hal_pwr_ex.o)
                              platform/libplatform_bl2.a(stm32l5xx_hal_flash_ex.o) (HAL_PWREx_GetVoltageRange)
platform/libplatform_bl2.a(stm32l5xx_hal_pwr.o)
                              platform/libplatform_bl2.a(stm32l5xx_hal_pwr_ex.o) (HAL_PWR_PVDCallback)
platform/libplatform_bl2.a(stm32l5xx_hal_rcc.o)
                              platform/libplatform_bl2.a(boot_hal_bl2.o) (HAL_RCC_OscConfig)
platform/libplatform_bl2.a(stm32l5xx_hal_cortex.o)
                              platform/libplatform_bl2.a(stm32l5xx_hal.o) (HAL_NVIC_SetPriorityGrouping)
platform/libplatform_bl2.a(stm32l5xx_hal_gpio.o)
                              platform/libplatform_bl2.a(stm32l5xx_hal_rcc.o) (HAL_GPIO_Init)
platform/libplatform_bl2.a(stm32l5xx_hal_gtzc.o)
                              platform/libplatform_bl2.a(tfm_low_level_security.o) (HAL_GTZC_MPCBB_ConfigMem)
platform/libplatform_bl2.a(low_level_rng.o)
                              platform/libplatform_bl2.a(boot_hal_bl2.o) (RNG_Init)
platform/libplatform_bl2.a(boot_hal_bl2.o)
                              bl2/CMakeFiles/bl2.dir/ext/mcuboot/bl2_main.o (boot_platform_post_init)
platform/libplatform_bl2.a(uart_stdout.o)
                              bl2/CMakeFiles/bl2.dir/ext/mcuboot/bl2_main.o (stdio_init)
platform/libplatform_bl2.a(nv_counters.o)
                              bl2/CMakeFiles/bl2.dir/src/security_cnt.o (tfm_plat_init_nv_counter)
platform/libplatform_bl2.a(flash_otp_nv_counters_backend.o)
                              platform/libplatform_bl2.a(nv_counters.o) (read_otp_nv_counters_flash)
platform/libplatform_bl2.a(otp_flash.o)
                              bl2/CMakeFiles/bl2.dir/ext/mcuboot/bl2_main.o (tfm_plat_otp_init)
platform/libplatform_bl2.a(low_level_device.o)
                              platform/libplatform_bl2.a(low_level_flash.o) (FLASH0_DEV)
platform/libplatform_bl2.a(low_level_com.o)
                              platform/libplatform_bl2.a(uart_stdout.o) (Driver_USART0)
platform/libplatform_bl2.a(stm32l5xx_hal_rcc_ex.o)
                              platform/libplatform_bl2.a(low_level_rng.o) (HAL_RCCEx_PeriphCLKConfig)
platform/libplatform_bl2.a(stm32l5xx_hal_uart.o)
                              platform/libplatform_bl2.a(low_level_com.o) (HAL_UART_Transmit)
platform/libplatform_bl2.a(stm32l5xx_hal_uart_ex.o)
                              platform/libplatform_bl2.a(stm32l5xx_hal_uart.o) (HAL_UARTEx_WakeupCallback)
platform/libplatform_bl2.a(stm32l5xx_hal_rng.o)
                              platform/libplatform_bl2.a(low_level_rng.o) (HAL_RNG_Init)
platform/libplatform_bl2.a(stm32l5xx_hal_dma.o)
                              platform/libplatform_bl2.a(stm32l5xx_hal_uart.o) (HAL_DMA_Start_IT)
bl2/mbedcrypto/library/libmbedcrypto.a(memory_buffer_alloc.o)
                              bl2/CMakeFiles/bl2.dir/ext/mcuboot/bl2_main.o (mbedtls_memory_buffer_alloc_init)
bl2/mbedcrypto/library/libmbedcrypto.a(platform.o)
                              bl2/mbedcrypto/library/libmbedcrypto.a(memory_buffer_alloc.o) (mbedtls_platform_set_calloc_free)
bl2/mbedcrypto/library/libmbedcrypto.a(platform_util.o)
                              bl2/mbedcrypto/library/libmbedcrypto.a(memory_buffer_alloc.o) (mbedtls_platform_zeroize)
bl2/mbedcrypto/library/libmbedcrypto.a(psa_crypto_hash.o)
                              bl2/CMakeFiles/bl2.dir/src/thin_psa_crypto_core.o (mbedtls_psa_hash_abort)
bl2/mbedcrypto/library/libmbedcrypto.a(sha256.o)
                              bl2/mbedcrypto/library/libmbedcrypto.a(psa_crypto_hash.o) (mbedtls_sha256_init)
bl2/mbedcrypto/3rdparty/p256-m/libbl2_p256m.a(p256-m_driver_entrypoints.o)
                              bl2/CMakeFiles/bl2.dir/src/thin_psa_crypto_core.o (p256_transparent_verify_hash)
bl2/mbedcrypto/3rdparty/p256-m/libbl2_p256m.a(p256-m.o)
                              bl2/mbedcrypto/3rdparty/p256-m/libbl2_p256m.a(p256-m_driver_entrypoints.o) (p256_gen_keypair)
/home/tmdals010126/zephyr-sdk-0.17.0/arm-zephyr-eabi/bin/../lib/gcc/arm-zephyr-eabi/12.2.0/thumb/v8-m.main/nofp/libgcc.a(cmse_nonsecure_call.o)
                              platform/libplatform_bl2.a(boot_hal_bl2.o) (__gnu_cmse_nonsecure_call)
/home/tmdals010126/zephyr-sdk-0.17.0/arm-zephyr-eabi/bin/../lib/gcc/arm-zephyr-eabi/12.2.0/thumb/v8-m.main/nofp/libgcc.a(_aeabi_ldivmod.o)
                              platform/libplatform_bl2.a(stm32l5xx_hal_uart.o) (__aeabi_ldivmod)
/home/tmdals010126/zephyr-sdk-0.17.0/arm-zephyr-eabi/bin/../lib/gcc/arm-zephyr-eabi/12.2.0/thumb/v8-m.main/nofp/libgcc.a(_aeabi_uldivmod.o)
                              platform/libplatform_bl2.a(stm32l5xx_hal_uart.o) (__aeabi_uldivmod)
/home/tmdals010126/zephyr-sdk-0.17.0/arm-zephyr-eabi/bin/../lib/gcc/arm-zephyr-eabi/12.2.0/thumb/v8-m.main/nofp/libgcc.a(_udivmoddi4.o)
                              /home/tmdals010126/zephyr-sdk-0.17.0/arm-zephyr-eabi/bin/../lib/gcc/arm-zephyr-eabi/12.2.0/thumb/v8-m.main/nofp/libgcc.a(_aeabi_ldivmod.o) (__udivmoddi4)
/home/tmdals010126/zephyr-sdk-0.17.0/arm-zephyr-eabi/bin/../lib/gcc/arm-zephyr-eabi/12.2.0/thumb/v8-m.main/nofp/libgcc.a(_dvmd_tls.o)
                              /home/tmdals010126/zephyr-sdk-0.17.0/arm-zephyr-eabi/bin/../lib/gcc/arm-zephyr-eabi/12.2.0/thumb/v8-m.main/nofp/libgcc.a(_aeabi_ldivmod.o) (__aeabi_ldiv0)
/home/tmdals010126/zephyr-sdk-0.17.0/arm-zephyr-eabi/bin/../lib/gcc/arm-zephyr-eabi/12.2.0/../../../../arm-zephyr-eabi/lib/thumb/v8-m.main/nofp/libc_nano.a(lib_a-calloc.o)
                              bl2/mbedcrypto/library/libmbedcrypto.a(platform.o) (calloc)
/home/tmdals010126/zephyr-sdk-0.17.0/arm-zephyr-eabi/bin/../lib/gcc/arm-zephyr-eabi/12.2.0/../../../../arm-zephyr-eabi/lib/thumb/v8-m.main/nofp/libc_nano.a(lib_a-exit.o)
                              /home/tmdals010126/zephyr-sdk-0.17.0/arm-zephyr-eabi/bin/../lib/gcc/arm-zephyr-eabi/12.2.0/../../../../arm-zephyr-eabi/lib/thumb/v8-m.main/nofp/crt0.o (exit)
/home/tmdals010126/zephyr-sdk-0.17.0/arm-zephyr-eabi/bin/../lib/gcc/arm-zephyr-eabi/12.2.0/../../../../arm-zephyr-eabi/lib/thumb/v8-m.main/nofp/libc_nano.a(lib_a-impure.o)
                              /home/tmdals010126/zephyr-sdk-0.17.0/arm-zephyr-eabi/bin/../lib/gcc/arm-zephyr-eabi/12.2.0/../../../../arm-zephyr-eabi/lib/thumb/v8-m.main/nofp/libc_nano.a(lib_a-exit.o) (_global_impure_ptr)
/home/tmdals010126/zephyr-sdk-0.17.0/arm-zephyr-eabi/bin/../lib/gcc/arm-zephyr-eabi/12.2.0/../../../../arm-zephyr-eabi/lib/thumb/v8-m.main/nofp/libc_nano.a(lib_a-init.o)
                              /home/tmdals010126/zephyr-sdk-0.17.0/arm-zephyr-eabi/bin/../lib/gcc/arm-zephyr-eabi/12.2.0/../../../../arm-zephyr-eabi/lib/thumb/v8-m.main/nofp/crt0.o (__libc_init_array)
/home/tmdals010126/zephyr-sdk-0.17.0/arm-zephyr-eabi/bin/../lib/gcc/arm-zephyr-eabi/12.2.0/../../../../arm-zephyr-eabi/lib/thumb/v8-m.main/nofp/libc_nano.a(lib_a-malloc.o)
                              bl2/ext/mcuboot/bootutil/libbootutil.a(loader.o) (malloc)
/home/tmdals010126/zephyr-sdk-0.17.0/arm-zephyr-eabi/bin/../lib/gcc/arm-zephyr-eabi/12.2.0/../../../../arm-zephyr-eabi/lib/thumb/v8-m.main/nofp/libc_nano.a(lib_a-memcmp.o)
                              bl2/ext/mcuboot/bootutil/libbootutil.a(bootutil_misc.o) (memcmp)
/home/tmdals010126/zephyr-sdk-0.17.0/arm-zephyr-eabi/bin/../lib/gcc/arm-zephyr-eabi/12.2.0/../../../../arm-zephyr-eabi/lib/thumb/v8-m.main/nofp/libc_nano.a(lib_a-memcpy-stub.o)
                              bl2/CMakeFiles/bl2.dir/src/thin_psa_crypto_core.o (memcpy)
/home/tmdals010126/zephyr-sdk-0.17.0/arm-zephyr-eabi/bin/../lib/gcc/arm-zephyr-eabi/12.2.0/../../../../arm-zephyr-eabi/lib/thumb/v8-m.main/nofp/libc_nano.a(lib_a-memset.o)
                              /home/tmdals010126/zephyr-sdk-0.17.0/arm-zephyr-eabi/bin/../lib/gcc/arm-zephyr-eabi/12.2.0/../../../../arm-zephyr-eabi/lib/thumb/v8-m.main/nofp/crt0.o (memset)
/home/tmdals010126/zephyr-sdk-0.17.0/arm-zephyr-eabi/bin/../lib/gcc/arm-zephyr-eabi/12.2.0/../../../../arm-zephyr-eabi/lib/thumb/v8-m.main/nofp/libc_nano.a(lib_a-nano-callocr.o)
                              /home/tmdals010126/zephyr-sdk-0.17.0/arm-zephyr-eabi/bin/../lib/gcc/arm-zephyr-eabi/12.2.0/../../../../arm-zephyr-eabi/lib/thumb/v8-m.main/nofp/libc_nano.a(lib_a-calloc.o) (_calloc_r)
/home/tmdals010126/zephyr-sdk-0.17.0/arm-zephyr-eabi/bin/../lib/gcc/arm-zephyr-eabi/12.2.0/../../../../arm-zephyr-eabi/lib/thumb/v8-m.main/nofp/libc_nano.a(lib_a-nano-freer.o)
                              /home/tmdals010126/zephyr-sdk-0.17.0/arm-zephyr-eabi/bin/../lib/gcc/arm-zephyr-eabi/12.2.0/../../../../arm-zephyr-eabi/lib/thumb/v8-m.main/nofp/libc_nano.a(lib_a-malloc.o) (_free_r)
/home/tmdals010126/zephyr-sdk-0.17.0/arm-zephyr-eabi/bin/../lib/gcc/arm-zephyr-eabi/12.2.0/../../../../arm-zephyr-eabi/lib/thumb/v8-m.main/nofp/libc_nano.a(lib_a-nano-mallocr.o)
                              /home/tmdals010126/zephyr-sdk-0.17.0/arm-zephyr-eabi/bin/../lib/gcc/arm-zephyr-eabi/12.2.0/../../../../arm-zephyr-eabi/lib/thumb/v8-m.main/nofp/libc_nano.a(lib_a-malloc.o) (_malloc_r)
/home/tmdals010126/zephyr-sdk-0.17.0/arm-zephyr-eabi/bin/../lib/gcc/arm-zephyr-eabi/12.2.0/../../../../arm-zephyr-eabi/lib/thumb/v8-m.main/nofp/libc_nano.a(lib_a-printf.o)
                              bl2/CMakeFiles/bl2.dir/src/provisioning.o (printf)
/home/tmdals010126/zephyr-sdk-0.17.0/arm-zephyr-eabi/bin/../lib/gcc/arm-zephyr-eabi/12.2.0/../../../../arm-zephyr-eabi/lib/thumb/v8-m.main/nofp/libc_nano.a(lib_a-sbrkr.o)
                              /home/tmdals010126/zephyr-sdk-0.17.0/arm-zephyr-eabi/bin/../lib/gcc/arm-zephyr-eabi/12.2.0/../../../../arm-zephyr-eabi/lib/thumb/v8-m.main/nofp/libc_nano.a(lib_a-nano-mallocr.o) (_sbrk_r)
/home/tmdals010126/zephyr-sdk-0.17.0/arm-zephyr-eabi/bin/../lib/gcc/arm-zephyr-eabi/12.2.0/../../../../arm-zephyr-eabi/lib/thumb/v8-m.main/nofp/libc_nano.a(lib_a-findfp.o)
                              /home/tmdals010126/zephyr-sdk-0.17.0/arm-zephyr-eabi/bin/../lib/gcc/arm-zephyr-eabi/12.2.0/../../../../arm-zephyr-eabi/lib/thumb/v8-m.main/nofp/libc_nano.a(lib_a-printf.o) (__sinit)
/home/tmdals010126/zephyr-sdk-0.17.0/arm-zephyr-eabi/bin/../lib/gcc/arm-zephyr-eabi/12.2.0/../../../../arm-zephyr-eabi/lib/thumb/v8-m.main/nofp/libc_nano.a(lib_a-fwalk.o)
                              /home/tmdals010126/zephyr-sdk-0.17.0/arm-zephyr-eabi/bin/../lib/gcc/arm-zephyr-eabi/12.2.0/../../../../arm-zephyr-eabi/lib/thumb/v8-m.main/nofp/libc_nano.a(lib_a-findfp.o) (_fwalk)
/home/tmdals010126/zephyr-sdk-0.17.0/arm-zephyr-eabi/bin/../lib/gcc/arm-zephyr-eabi/12.2.0/../../../../arm-zephyr-eabi/lib/thumb/v8-m.main/nofp/libc_nano.a(lib_a-lock.o)
                              /home/tmdals010126/zephyr-sdk-0.17.0/arm-zephyr-eabi/bin/../lib/gcc/arm-zephyr-eabi/12.2.0/../../../../arm-zephyr-eabi/lib/thumb/v8-m.main/nofp/libc_nano.a(lib_a-findfp.o) (__retarget_lock_init_recursive)
/home/tmdals010126/zephyr-sdk-0.17.0/arm-zephyr-eabi/bin/../lib/gcc/arm-zephyr-eabi/12.2.0/../../../../arm-zephyr-eabi/lib/thumb/v8-m.main/nofp/libc_nano.a(lib_a-mlock.o)
                              /home/tmdals010126/zephyr-sdk-0.17.0/arm-zephyr-eabi/bin/../lib/gcc/arm-zephyr-eabi/12.2.0/../../../../arm-zephyr-eabi/lib/thumb/v8-m.main/nofp/libc_nano.a(lib_a-nano-freer.o) (__malloc_lock)
/home/tmdals010126/zephyr-sdk-0.17.0/arm-zephyr-eabi/bin/../lib/gcc/arm-zephyr-eabi/12.2.0/../../../../arm-zephyr-eabi/lib/thumb/v8-m.main/nofp/libc_nano.a(lib_a-nano-vfprintf.o)
                              /home/tmdals010126/zephyr-sdk-0.17.0/arm-zephyr-eabi/bin/../lib/gcc/arm-zephyr-eabi/12.2.0/../../../../arm-zephyr-eabi/lib/thumb/v8-m.main/nofp/libc_nano.a(lib_a-printf.o) (_vfprintf_r)
/home/tmdals010126/zephyr-sdk-0.17.0/arm-zephyr-eabi/bin/../lib/gcc/arm-zephyr-eabi/12.2.0/../../../../arm-zephyr-eabi/lib/thumb/v8-m.main/nofp/libc_nano.a(lib_a-nano-vfprintf_i.o)
                              /home/tmdals010126/zephyr-sdk-0.17.0/arm-zephyr-eabi/bin/../lib/gcc/arm-zephyr-eabi/12.2.0/../../../../arm-zephyr-eabi/lib/thumb/v8-m.main/nofp/libc_nano.a(lib_a-nano-vfprintf.o) (_printf_i)
/home/tmdals010126/zephyr-sdk-0.17.0/arm-zephyr-eabi/bin/../lib/gcc/arm-zephyr-eabi/12.2.0/../../../../arm-zephyr-eabi/lib/thumb/v8-m.main/nofp/libc_nano.a(lib_a-reent.o)
                              /home/tmdals010126/zephyr-sdk-0.17.0/arm-zephyr-eabi/bin/../lib/gcc/arm-zephyr-eabi/12.2.0/../../../../arm-zephyr-eabi/lib/thumb/v8-m.main/nofp/libc_nano.a(lib_a-sbrkr.o) (errno)
/home/tmdals010126/zephyr-sdk-0.17.0/arm-zephyr-eabi/bin/../lib/gcc/arm-zephyr-eabi/12.2.0/../../../../arm-zephyr-eabi/lib/thumb/v8-m.main/nofp/libc_nano.a(lib_a-stdio.o)
                              /home/tmdals010126/zephyr-sdk-0.17.0/arm-zephyr-eabi/bin/../lib/gcc/arm-zephyr-eabi/12.2.0/../../../../arm-zephyr-eabi/lib/thumb/v8-m.main/nofp/libc_nano.a(lib_a-findfp.o) (__sread)
/home/tmdals010126/zephyr-sdk-0.17.0/arm-zephyr-eabi/bin/../lib/gcc/arm-zephyr-eabi/12.2.0/../../../../arm-zephyr-eabi/lib/thumb/v8-m.main/nofp/libc_nano.a(lib_a-wbuf.o)
                              /home/tmdals010126/zephyr-sdk-0.17.0/arm-zephyr-eabi/bin/../lib/gcc/arm-zephyr-eabi/12.2.0/../../../../arm-zephyr-eabi/lib/thumb/v8-m.main/nofp/libc_nano.a(lib_a-nano-vfprintf.o) (__swbuf_r)
/home/tmdals010126/zephyr-sdk-0.17.0/arm-zephyr-eabi/bin/../lib/gcc/arm-zephyr-eabi/12.2.0/../../../../arm-zephyr-eabi/lib/thumb/v8-m.main/nofp/libc_nano.a(lib_a-writer.o)
                              /home/tmdals010126/zephyr-sdk-0.17.0/arm-zephyr-eabi/bin/../lib/gcc/arm-zephyr-eabi/12.2.0/../../../../arm-zephyr-eabi/lib/thumb/v8-m.main/nofp/libc_nano.a(lib_a-stdio.o) (_write_r)
/home/tmdals010126/zephyr-sdk-0.17.0/arm-zephyr-eabi/bin/../lib/gcc/arm-zephyr-eabi/12.2.0/../../../../arm-zephyr-eabi/lib/thumb/v8-m.main/nofp/libc_nano.a(lib_a-wsetup.o)
                              /home/tmdals010126/zephyr-sdk-0.17.0/arm-zephyr-eabi/bin/../lib/gcc/arm-zephyr-eabi/12.2.0/../../../../arm-zephyr-eabi/lib/thumb/v8-m.main/nofp/libc_nano.a(lib_a-nano-vfprintf.o) (__swsetup_r)
/home/tmdals010126/zephyr-sdk-0.17.0/arm-zephyr-eabi/bin/../lib/gcc/arm-zephyr-eabi/12.2.0/../../../../arm-zephyr-eabi/lib/thumb/v8-m.main/nofp/libc_nano.a(lib_a-closer.o)
                              /home/tmdals010126/zephyr-sdk-0.17.0/arm-zephyr-eabi/bin/../lib/gcc/arm-zephyr-eabi/12.2.0/../../../../arm-zephyr-eabi/lib/thumb/v8-m.main/nofp/libc_nano.a(lib_a-stdio.o) (_close_r)
/home/tmdals010126/zephyr-sdk-0.17.0/arm-zephyr-eabi/bin/../lib/gcc/arm-zephyr-eabi/12.2.0/../../../../arm-zephyr-eabi/lib/thumb/v8-m.main/nofp/libc_nano.a(lib_a-fflush.o)
                              /home/tmdals010126/zephyr-sdk-0.17.0/arm-zephyr-eabi/bin/../lib/gcc/arm-zephyr-eabi/12.2.0/../../../../arm-zephyr-eabi/lib/thumb/v8-m.main/nofp/libc_nano.a(lib_a-findfp.o) (_fflush_r)
/home/tmdals010126/zephyr-sdk-0.17.0/arm-zephyr-eabi/bin/../lib/gcc/arm-zephyr-eabi/12.2.0/../../../../arm-zephyr-eabi/lib/thumb/v8-m.main/nofp/libc_nano.a(lib_a-fvwrite.o)
                              /home/tmdals010126/zephyr-sdk-0.17.0/arm-zephyr-eabi/bin/../lib/gcc/arm-zephyr-eabi/12.2.0/../../../../arm-zephyr-eabi/lib/thumb/v8-m.main/nofp/libc_nano.a(lib_a-nano-vfprintf.o) (__sfvwrite_r)
/home/tmdals010126/zephyr-sdk-0.17.0/arm-zephyr-eabi/bin/../lib/gcc/arm-zephyr-eabi/12.2.0/../../../../arm-zephyr-eabi/lib/thumb/v8-m.main/nofp/libc_nano.a(lib_a-lseekr.o)
                              /home/tmdals010126/zephyr-sdk-0.17.0/arm-zephyr-eabi/bin/../lib/gcc/arm-zephyr-eabi/12.2.0/../../../../arm-zephyr-eabi/lib/thumb/v8-m.main/nofp/libc_nano.a(lib_a-stdio.o) (_lseek_r)
/home/tmdals010126/zephyr-sdk-0.17.0/arm-zephyr-eabi/bin/../lib/gcc/arm-zephyr-eabi/12.2.0/../../../../arm-zephyr-eabi/lib/thumb/v8-m.main/nofp/libc_nano.a(lib_a-makebuf.o)
                              /home/tmdals010126/zephyr-sdk-0.17.0/arm-zephyr-eabi/bin/../lib/gcc/arm-zephyr-eabi/12.2.0/../../../../arm-zephyr-eabi/lib/thumb/v8-m.main/nofp/libc_nano.a(lib_a-wsetup.o) (__smakebuf_r)
/home/tmdals010126/zephyr-sdk-0.17.0/arm-zephyr-eabi/bin/../lib/gcc/arm-zephyr-eabi/12.2.0/../../../../arm-zephyr-eabi/lib/thumb/v8-m.main/nofp/libc_nano.a(lib_a-memchr-stub.o)
                              /home/tmdals010126/zephyr-sdk-0.17.0/arm-zephyr-eabi/bin/../lib/gcc/arm-zephyr-eabi/12.2.0/../../../../arm-zephyr-eabi/lib/thumb/v8-m.main/nofp/libc_nano.a(lib_a-nano-vfprintf.o) (memchr)
/home/tmdals010126/zephyr-sdk-0.17.0/arm-zephyr-eabi/bin/../lib/gcc/arm-zephyr-eabi/12.2.0/../../../../arm-zephyr-eabi/lib/thumb/v8-m.main/nofp/libc_nano.a(lib_a-memmove.o)
                              /home/tmdals010126/zephyr-sdk-0.17.0/arm-zephyr-eabi/bin/../lib/gcc/arm-zephyr-eabi/12.2.0/../../../../arm-zephyr-eabi/lib/thumb/v8-m.main/nofp/libc_nano.a(lib_a-fvwrite.o) (memmove)
/home/tmdals010126/zephyr-sdk-0.17.0/arm-zephyr-eabi/bin/../lib/gcc/arm-zephyr-eabi/12.2.0/../../../../arm-zephyr-eabi/lib/thumb/v8-m.main/nofp/libc_nano.a(lib_a-nano-reallocr.o)
                              /home/tmdals010126/zephyr-sdk-0.17.0/arm-zephyr-eabi/bin/../lib/gcc/arm-zephyr-eabi/12.2.0/../../../../arm-zephyr-eabi/lib/thumb/v8-m.main/nofp/libc_nano.a(lib_a-fvwrite.o) (_realloc_r)
/home/tmdals010126/zephyr-sdk-0.17.0/arm-zephyr-eabi/bin/../lib/gcc/arm-zephyr-eabi/12.2.0/../../../../arm-zephyr-eabi/lib/thumb/v8-m.main/nofp/libc_nano.a(lib_a-readr.o)
                              /home/tmdals010126/zephyr-sdk-0.17.0/arm-zephyr-eabi/bin/../lib/gcc/arm-zephyr-eabi/12.2.0/../../../../arm-zephyr-eabi/lib/thumb/v8-m.main/nofp/libc_nano.a(lib_a-stdio.o) (_read_r)
/home/tmdals010126/zephyr-sdk-0.17.0/arm-zephyr-eabi/bin/../lib/gcc/arm-zephyr-eabi/12.2.0/../../../../arm-zephyr-eabi/lib/thumb/v8-m.main/nofp/libc_nano.a(lib_a-fstatr.o)
                              /home/tmdals010126/zephyr-sdk-0.17.0/arm-zephyr-eabi/bin/../lib/gcc/arm-zephyr-eabi/12.2.0/../../../../arm-zephyr-eabi/lib/thumb/v8-m.main/nofp/libc_nano.a(lib_a-makebuf.o) (_fstat_r)
/home/tmdals010126/zephyr-sdk-0.17.0/arm-zephyr-eabi/bin/../lib/gcc/arm-zephyr-eabi/12.2.0/../../../../arm-zephyr-eabi/lib/thumb/v8-m.main/nofp/libc_nano.a(lib_a-isattyr.o)
                              /home/tmdals010126/zephyr-sdk-0.17.0/arm-zephyr-eabi/bin/../lib/gcc/arm-zephyr-eabi/12.2.0/../../../../arm-zephyr-eabi/lib/thumb/v8-m.main/nofp/libc_nano.a(lib_a-makebuf.o) (_isatty_r)
/home/tmdals010126/zephyr-sdk-0.17.0/arm-zephyr-eabi/bin/../lib/gcc/arm-zephyr-eabi/12.2.0/../../../../arm-zephyr-eabi/lib/thumb/v8-m.main/nofp/libc_nano.a(lib_a-nano-msizer.o)
                              /home/tmdals010126/zephyr-sdk-0.17.0/arm-zephyr-eabi/bin/../lib/gcc/arm-zephyr-eabi/12.2.0/../../../../arm-zephyr-eabi/lib/thumb/v8-m.main/nofp/libc_nano.a(lib_a-nano-reallocr.o) (_malloc_usable_size_r)
/home/tmdals010126/zephyr-sdk-0.17.0/arm-zephyr-eabi/bin/../lib/gcc/arm-zephyr-eabi/12.2.0/../../../../arm-zephyr-eabi/lib/thumb/v8-m.main/nofp/libnosys.a(sbrk.o)
                              /home/tmdals010126/zephyr-sdk-0.17.0/arm-zephyr-eabi/bin/../lib/gcc/arm-zephyr-eabi/12.2.0/../../../../arm-zephyr-eabi/lib/thumb/v8-m.main/nofp/libc_nano.a(lib_a-sbrkr.o) (_sbrk)
/home/tmdals010126/zephyr-sdk-0.17.0/arm-zephyr-eabi/bin/../lib/gcc/arm-zephyr-eabi/12.2.0/../../../../arm-zephyr-eabi/lib/thumb/v8-m.main/nofp/libnosys.a(_exit.o)
                              /home/tmdals010126/zephyr-sdk-0.17.0/arm-zephyr-eabi/bin/../lib/gcc/arm-zephyr-eabi/12.2.0/../../../../arm-zephyr-eabi/lib/thumb/v8-m.main/nofp/libc_nano.a(lib_a-exit.o) (_exit)

Discarded input sections

 .text          0x0000000000000000        0x0 /home/tmdals010126/zephyr-sdk-0.17.0/arm-zephyr-eabi/bin/../lib/gcc/arm-zephyr-eabi/12.2.0/thumb/v8-m.main/nofp/crti.o
 .data          0x0000000000000000        0x0 /home/tmdals010126/zephyr-sdk-0.17.0/arm-zephyr-eabi/bin/../lib/gcc/arm-zephyr-eabi/12.2.0/thumb/v8-m.main/nofp/crti.o
 .bss           0x0000000000000000        0x0 /home/tmdals010126/zephyr-sdk-0.17.0/arm-zephyr-eabi/bin/../lib/gcc/arm-zephyr-eabi/12.2.0/thumb/v8-m.main/nofp/crti.o
 .data          0x0000000000000000        0x4 /home/tmdals010126/zephyr-sdk-0.17.0/arm-zephyr-eabi/bin/../lib/gcc/arm-zephyr-eabi/12.2.0/thumb/v8-m.main/nofp/crtbegin.o
 .rodata        0x0000000000000000       0x24 /home/tmdals010126/zephyr-sdk-0.17.0/arm-zephyr-eabi/bin/../lib/gcc/arm-zephyr-eabi/12.2.0/thumb/v8-m.main/nofp/crtbegin.o
 .data          0x0000000000000000        0x0 /home/tmdals010126/zephyr-sdk-0.17.0/arm-zephyr-eabi/bin/../lib/gcc/arm-zephyr-eabi/12.2.0/../../../../arm-zephyr-eabi/lib/thumb/v8-m.main/nofp/crt0.o
 .bss           0x0000000000000000        0x0 /home/tmdals010126/zephyr-sdk-0.17.0/arm-zephyr-eabi/bin/../lib/gcc/arm-zephyr-eabi/12.2.0/../../../../arm-zephyr-eabi/lib/thumb/v8-m.main/nofp/crt0.o
 .ARM.extab     0x0000000000000000        0x0 /home/tmdals010126/zephyr-sdk-0.17.0/arm-zephyr-eabi/bin/../lib/gcc/arm-zephyr-eabi/12.2.0/../../../../arm-zephyr-eabi/lib/thumb/v8-m.main/nofp/crt0.o
 .text          0x0000000000000000        0x0 bl2/CMakeFiles/bl2.dir/src/flash_map.o
 .data          0x0000000000000000        0x0 bl2/CMakeFiles/bl2.dir/src/flash_map.o
 .bss           0x0000000000000000        0x0 bl2/CMakeFiles/bl2.dir/src/flash_map.o
 .text.flash_area_driver_init
                0x0000000000000000       0x30 bl2/CMakeFiles/bl2.dir/src/flash_map.o
 .text          0x0000000000000000        0x0 bl2/CMakeFiles/bl2.dir/src/security_cnt.o
 .data          0x0000000000000000        0x0 bl2/CMakeFiles/bl2.dir/src/security_cnt.o
 .bss           0x0000000000000000        0x0 bl2/CMakeFiles/bl2.dir/src/security_cnt.o
 .text          0x0000000000000000        0x0 bl2/CMakeFiles/bl2.dir/src/default_flash_map.o
 .data          0x0000000000000000        0x0 bl2/CMakeFiles/bl2.dir/src/default_flash_map.o
 .bss           0x0000000000000000        0x0 bl2/CMakeFiles/bl2.dir/src/default_flash_map.o
 .rodata.flash_driver_entry_num
                0x0000000000000000        0x4 bl2/CMakeFiles/bl2.dir/src/default_flash_map.o
 .data.flash_driver
                0x0000000000000000        0x4 bl2/CMakeFiles/bl2.dir/src/default_flash_map.o
 .text          0x0000000000000000        0x0 bl2/CMakeFiles/bl2.dir/src/provisioning.o
 .data          0x0000000000000000        0x0 bl2/CMakeFiles/bl2.dir/src/provisioning.o
 .bss           0x0000000000000000        0x0 bl2/CMakeFiles/bl2.dir/src/provisioning.o
 .text          0x0000000000000000        0x0 bl2/CMakeFiles/bl2.dir/src/thin_psa_crypto_core.o
 .data          0x0000000000000000        0x0 bl2/CMakeFiles/bl2.dir/src/thin_psa_crypto_core.o
 .bss           0x0000000000000000        0x0 bl2/CMakeFiles/bl2.dir/src/thin_psa_crypto_core.o
 .text.psa_generate_random
                0x0000000000000000       0x24 bl2/CMakeFiles/bl2.dir/src/thin_psa_crypto_core.o
 .text.psa_verify_hash_builtin
                0x0000000000000000       0x2a bl2/CMakeFiles/bl2.dir/src/thin_psa_crypto_core.o
 .text          0x0000000000000000        0x0 bl2/CMakeFiles/bl2.dir/__/platform/ext/common/syscalls_stub.o
 .data          0x0000000000000000        0x0 bl2/CMakeFiles/bl2.dir/__/platform/ext/common/syscalls_stub.o
 .bss           0x0000000000000000        0x0 bl2/CMakeFiles/bl2.dir/__/platform/ext/common/syscalls_stub.o
 .text._getpid  0x0000000000000000        0x2 bl2/CMakeFiles/bl2.dir/__/platform/ext/common/syscalls_stub.o
 .text._kill    0x0000000000000000        0x2 bl2/CMakeFiles/bl2.dir/__/platform/ext/common/syscalls_stub.o
 .text._write   0x0000000000000000        0x2 bl2/CMakeFiles/bl2.dir/__/platform/ext/common/syscalls_stub.o
 .text          0x0000000000000000        0x0 bl2/CMakeFiles/bl2.dir/ext/mcuboot/bl2_main.o
 .data          0x0000000000000000        0x0 bl2/CMakeFiles/bl2.dir/ext/mcuboot/bl2_main.o
 .bss           0x0000000000000000        0x0 bl2/CMakeFiles/bl2.dir/ext/mcuboot/bl2_main.o
 .text.mbedtls_psa_external_get_random
                0x0000000000000000        0x6 bl2/CMakeFiles/bl2.dir/ext/mcuboot/bl2_main.o
 .text          0x0000000000000000        0x0 bl2/CMakeFiles/bl2.dir/ext/mcuboot/keys.o
 .data          0x0000000000000000        0x0 bl2/CMakeFiles/bl2.dir/ext/mcuboot/keys.o
 .bss           0x0000000000000000        0x0 bl2/CMakeFiles/bl2.dir/ext/mcuboot/keys.o
 .text          0x0000000000000000        0x0 bl2/CMakeFiles/bl2.dir/ext/mcuboot/flash_map_extended.o
 .data          0x0000000000000000        0x0 bl2/CMakeFiles/bl2.dir/ext/mcuboot/flash_map_extended.o
 .bss           0x0000000000000000        0x0 bl2/CMakeFiles/bl2.dir/ext/mcuboot/flash_map_extended.o
 .text.flash_area_id_from_image_slot
                0x0000000000000000        0x8 bl2/CMakeFiles/bl2.dir/ext/mcuboot/flash_map_extended.o
 .rodata.flash_area_id_to_multi_image_slot.str1.1
                0x0000000000000000       0x1e bl2/CMakeFiles/bl2.dir/ext/mcuboot/flash_map_extended.o
 .text.flash_area_id_to_multi_image_slot
                0x0000000000000000       0x38 bl2/CMakeFiles/bl2.dir/ext/mcuboot/flash_map_extended.o
 .text.flash_area_id_to_image_slot
                0x0000000000000000        0x8 bl2/CMakeFiles/bl2.dir/ext/mcuboot/flash_map_extended.o
 .text.flash_area_read_is_empty
                0x0000000000000000       0x36 bl2/CMakeFiles/bl2.dir/ext/mcuboot/flash_map_extended.o
 .text.flash_area_get_sector
                0x0000000000000000       0x2e bl2/CMakeFiles/bl2.dir/ext/mcuboot/flash_map_extended.o
 .text          0x0000000000000000        0x0 bl2/CMakeFiles/bl2.dir/ext/mcuboot/flash_map_legacy.o
 .data          0x0000000000000000        0x0 bl2/CMakeFiles/bl2.dir/ext/mcuboot/flash_map_legacy.o
 .bss           0x0000000000000000        0x0 bl2/CMakeFiles/bl2.dir/ext/mcuboot/flash_map_legacy.o
 .text          0x0000000000000000        0x0 bl2/CMakeFiles/bl2.dir/__/platform/ext/target/stm/common/hal/Native_Driver/tick.o
 .data          0x0000000000000000        0x0 bl2/CMakeFiles/bl2.dir/__/platform/ext/target/stm/common/hal/Native_Driver/tick.o
 .bss           0x0000000000000000        0x0 bl2/CMakeFiles/bl2.dir/__/platform/ext/target/stm/common/hal/Native_Driver/tick.o
 .text          0x0000000000000000        0x0 bl2/CMakeFiles/bl2.dir/__/platform/ext/target/stm/common/stm32l5xx/Device/Source/startup_stm32l5xx_bl2.o
 .data          0x0000000000000000        0x0 bl2/CMakeFiles/bl2.dir/__/platform/ext/target/stm/common/stm32l5xx/Device/Source/startup_stm32l5xx_bl2.o
 .bss           0x0000000000000000        0x0 bl2/CMakeFiles/bl2.dir/__/platform/ext/target/stm/common/stm32l5xx/Device/Source/startup_stm32l5xx_bl2.o
 .text.NMI_Handler
                0x0000000000000000        0x2 bl2/CMakeFiles/bl2.dir/__/platform/ext/target/stm/common/stm32l5xx/Device/Source/startup_stm32l5xx_bl2.o
 .text          0x0000000000000000        0x0 bl2/CMakeFiles/bl2.dir/__/platform/ext/target/stm/common/hal/accelerator/sha1_alt.o
 .data          0x0000000000000000        0x0 bl2/CMakeFiles/bl2.dir/__/platform/ext/target/stm/common/hal/accelerator/sha1_alt.o
 .bss           0x0000000000000000        0x0 bl2/CMakeFiles/bl2.dir/__/platform/ext/target/stm/common/hal/accelerator/sha1_alt.o
 .debug_info    0x0000000000000000       0x64 bl2/CMakeFiles/bl2.dir/__/platform/ext/target/stm/common/hal/accelerator/sha1_alt.o
 .debug_abbrev  0x0000000000000000       0x26 bl2/CMakeFiles/bl2.dir/__/platform/ext/target/stm/common/hal/accelerator/sha1_alt.o
 .debug_aranges
                0x0000000000000000       0x18 bl2/CMakeFiles/bl2.dir/__/platform/ext/target/stm/common/hal/accelerator/sha1_alt.o
 .debug_line    0x0000000000000000       0x9f bl2/CMakeFiles/bl2.dir/__/platform/ext/target/stm/common/hal/accelerator/sha1_alt.o
 .debug_str     0x0000000000000000      0x204 bl2/CMakeFiles/bl2.dir/__/platform/ext/target/stm/common/hal/accelerator/sha1_alt.o
 .comment       0x0000000000000000       0x21 bl2/CMakeFiles/bl2.dir/__/platform/ext/target/stm/common/hal/accelerator/sha1_alt.o
 .ARM.attributes
                0x0000000000000000       0x34 bl2/CMakeFiles/bl2.dir/__/platform/ext/target/stm/common/hal/accelerator/sha1_alt.o
 .text          0x0000000000000000        0x0 bl2/CMakeFiles/bl2.dir/__/platform/ext/target/stm/common/hal/accelerator/sha256_alt.o
 .data          0x0000000000000000        0x0 bl2/CMakeFiles/bl2.dir/__/platform/ext/target/stm/common/hal/accelerator/sha256_alt.o
 .bss           0x0000000000000000        0x0 bl2/CMakeFiles/bl2.dir/__/platform/ext/target/stm/common/hal/accelerator/sha256_alt.o
 .debug_info    0x0000000000000000       0x64 bl2/CMakeFiles/bl2.dir/__/platform/ext/target/stm/common/hal/accelerator/sha256_alt.o
 .debug_abbrev  0x0000000000000000       0x26 bl2/CMakeFiles/bl2.dir/__/platform/ext/target/stm/common/hal/accelerator/sha256_alt.o
 .debug_aranges
                0x0000000000000000       0x18 bl2/CMakeFiles/bl2.dir/__/platform/ext/target/stm/common/hal/accelerator/sha256_alt.o
 .debug_line    0x0000000000000000       0xa1 bl2/CMakeFiles/bl2.dir/__/platform/ext/target/stm/common/hal/accelerator/sha256_alt.o
 .debug_str     0x0000000000000000      0x206 bl2/CMakeFiles/bl2.dir/__/platform/ext/target/stm/common/hal/accelerator/sha256_alt.o
 .comment       0x0000000000000000       0x21 bl2/CMakeFiles/bl2.dir/__/platform/ext/target/stm/common/hal/accelerator/sha256_alt.o
 .ARM.attributes
                0x0000000000000000       0x34 bl2/CMakeFiles/bl2.dir/__/platform/ext/target/stm/common/hal/accelerator/sha256_alt.o
 .text          0x0000000000000000        0x0 bl2/CMakeFiles/bl2.dir/__/platform/ext/target/stm/common/hal/accelerator/stm.o
 .data          0x0000000000000000        0x0 bl2/CMakeFiles/bl2.dir/__/platform/ext/target/stm/common/hal/accelerator/stm.o
 .bss           0x0000000000000000        0x0 bl2/CMakeFiles/bl2.dir/__/platform/ext/target/stm/common/hal/accelerator/stm.o
 .text.crypto_hw_accelerator_finish
                0x0000000000000000        0x4 bl2/CMakeFiles/bl2.dir/__/platform/ext/target/stm/common/hal/accelerator/stm.o
 .text          0x0000000000000000        0x0 bl2/ext/mcuboot/bootutil/libbootutil.a(fault_injection_hardening.o)
 .data          0x0000000000000000        0x0 bl2/ext/mcuboot/bootutil/libbootutil.a(fault_injection_hardening.o)
 .bss           0x0000000000000000        0x0 bl2/ext/mcuboot/bootutil/libbootutil.a(fault_injection_hardening.o)
 .data.FIH_BOOT_HOOK_REGULAR
                0x0000000000000000        0x4 bl2/ext/mcuboot/bootutil/libbootutil.a(fault_injection_hardening.o)
 .text          0x0000000000000000        0x0 bl2/ext/mcuboot/bootutil/libbootutil.a(loader.o)
 .data          0x0000000000000000        0x0 bl2/ext/mcuboot/bootutil/libbootutil.a(loader.o)
 .bss           0x0000000000000000        0x0 bl2/ext/mcuboot/bootutil/libbootutil.a(loader.o)
 .text.boot_write_status
                0x0000000000000000       0x76 bl2/ext/mcuboot/bootutil/libbootutil.a(loader.o)
 .text.boot_erase_region
                0x0000000000000000        0x4 bl2/ext/mcuboot/bootutil/libbootutil.a(loader.o)
 .text.split_go
                0x0000000000000000      0x1bc bl2/ext/mcuboot/bootutil/libbootutil.a(loader.o)
 .text.boot_go  0x0000000000000000       0x20 bl2/ext/mcuboot/bootutil/libbootutil.a(loader.o)
 .text.boot_state_clear
                0x0000000000000000       0x14 bl2/ext/mcuboot/bootutil/libbootutil.a(loader.o)
 .bss.tmpbuf.0  0x0000000000000000        0x4 bl2/ext/mcuboot/bootutil/libbootutil.a(loader.o)
 .text          0x0000000000000000        0x0 bl2/ext/mcuboot/bootutil/libbootutil.a(swap_scratch.o)
 .data          0x0000000000000000        0x0 bl2/ext/mcuboot/bootutil/libbootutil.a(swap_scratch.o)
 .bss           0x0000000000000000        0x0 bl2/ext/mcuboot/bootutil/libbootutil.a(swap_scratch.o)
 .rodata.swap_read_status_bytes.str1.1
                0x0000000000000000       0x26 bl2/ext/mcuboot/bootutil/libbootutil.a(swap_scratch.o)
 .text.swap_read_status_bytes
                0x0000000000000000       0xb0 bl2/ext/mcuboot/bootutil/libbootutil.a(swap_scratch.o)
 .text.boot_status_internal_off
                0x0000000000000000       0x16 bl2/ext/mcuboot/bootutil/libbootutil.a(swap_scratch.o)
 .rodata.swap_status_source.str1.1
                0x0000000000000000       0xbf bl2/ext/mcuboot/bootutil/libbootutil.a(swap_scratch.o)
 .text.swap_status_source
                0x0000000000000000       0xd8 bl2/ext/mcuboot/bootutil/libbootutil.a(swap_scratch.o)
 .text.app_max_size
                0x0000000000000000       0x84 bl2/ext/mcuboot/bootutil/libbootutil.a(swap_scratch.o)
 .rodata.boot_status_tables
                0x0000000000000000       0x10 bl2/ext/mcuboot/bootutil/libbootutil.a(swap_scratch.o)
 .bss.boot_status_fails
                0x0000000000000000        0x4 bl2/ext/mcuboot/bootutil/libbootutil.a(swap_scratch.o)
 .text          0x0000000000000000        0x0 bl2/ext/mcuboot/bootutil/libbootutil.a(tlv.o)
 .data          0x0000000000000000        0x0 bl2/ext/mcuboot/bootutil/libbootutil.a(tlv.o)
 .bss           0x0000000000000000        0x0 bl2/ext/mcuboot/bootutil/libbootutil.a(tlv.o)
 .text          0x0000000000000000        0x0 bl2/ext/mcuboot/bootutil/libbootutil.a(boot_record.o)
 .data          0x0000000000000000        0x0 bl2/ext/mcuboot/bootutil/libbootutil.a(boot_record.o)
 .bss           0x0000000000000000        0x0 bl2/ext/mcuboot/bootutil/libbootutil.a(boot_record.o)
 .text          0x0000000000000000        0x0 bl2/ext/mcuboot/bootutil/libbootutil.a(bootutil_misc.o)
 .data          0x0000000000000000        0x0 bl2/ext/mcuboot/bootutil/libbootutil.a(bootutil_misc.o)
 .bss           0x0000000000000000        0x0 bl2/ext/mcuboot/bootutil/libbootutil.a(bootutil_misc.o)
 .text.boot_status_sz
                0x0000000000000000        0x8 bl2/ext/mcuboot/bootutil/libbootutil.a(bootutil_misc.o)
 .text.boot_trailer_sz
                0x0000000000000000        0xa bl2/ext/mcuboot/bootutil/libbootutil.a(bootutil_misc.o)
 .text.boot_status_entries
                0x0000000000000000       0x38 bl2/ext/mcuboot/bootutil/libbootutil.a(bootutil_misc.o)
 .text.boot_status_off
                0x0000000000000000       0x16 bl2/ext/mcuboot/bootutil/libbootutil.a(bootutil_misc.o)
 .text.boot_find_status
                0x0000000000000000       0x4c bl2/ext/mcuboot/bootutil/libbootutil.a(bootutil_misc.o)
 .text.boot_read_swap_size
                0x0000000000000000       0x1c bl2/ext/mcuboot/bootutil/libbootutil.a(bootutil_misc.o)
 .text.boot_write_swap_size
                0x0000000000000000       0x1e bl2/ext/mcuboot/bootutil/libbootutil.a(bootutil_misc.o)
 .bss.boot_current_slot
                0x0000000000000000        0x4 bl2/ext/mcuboot/bootutil/libbootutil.a(bootutil_misc.o)
 .text          0x0000000000000000        0x0 bl2/ext/mcuboot/bootutil/libbootutil.a(bootutil_public.o)
 .data          0x0000000000000000        0x0 bl2/ext/mcuboot/bootutil/libbootutil.a(bootutil_public.o)
 .bss           0x0000000000000000        0x0 bl2/ext/mcuboot/bootutil/libbootutil.a(bootutil_public.o)
 .text.boot_write_magic
                0x0000000000000000       0x40 bl2/ext/mcuboot/bootutil/libbootutil.a(bootutil_public.o)
 .text.boot_write_trailer
                0x0000000000000000       0x58 bl2/ext/mcuboot/bootutil/libbootutil.a(bootutil_public.o)
 .text.boot_write_trailer_flag
                0x0000000000000000       0x14 bl2/ext/mcuboot/bootutil/libbootutil.a(bootutil_public.o)
 .text.boot_write_image_ok
                0x0000000000000000        0xe bl2/ext/mcuboot/bootutil/libbootutil.a(bootutil_public.o)
 .text.boot_write_swap_info
                0x0000000000000000       0x22 bl2/ext/mcuboot/bootutil/libbootutil.a(bootutil_public.o)
 .text.boot_write_copy_done
                0x0000000000000000       0x10 bl2/ext/mcuboot/bootutil/libbootutil.a(bootutil_public.o)
 .text.boot_set_next
                0x0000000000000000       0x90 bl2/ext/mcuboot/bootutil/libbootutil.a(bootutil_public.o)
 .text.boot_swap_type
                0x0000000000000000        0x6 bl2/ext/mcuboot/bootutil/libbootutil.a(bootutil_public.o)
 .text.boot_set_pending_multi
                0x0000000000000000       0x3a bl2/ext/mcuboot/bootutil/libbootutil.a(bootutil_public.o)
 .text.boot_set_pending
                0x0000000000000000        0x8 bl2/ext/mcuboot/bootutil/libbootutil.a(bootutil_public.o)
 .text.boot_set_confirmed_multi
                0x0000000000000000       0x38 bl2/ext/mcuboot/bootutil/libbootutil.a(bootutil_public.o)
 .text.boot_set_confirmed
                0x0000000000000000        0x6 bl2/ext/mcuboot/bootutil/libbootutil.a(bootutil_public.o)
 .rodata.boot_image_load_header.str1.1
                0x0000000000000000       0x5d bl2/ext/mcuboot/bootutil/libbootutil.a(bootutil_public.o)
 .text.boot_image_load_header
                0x0000000000000000       0x5c bl2/ext/mcuboot/bootutil/libbootutil.a(bootutil_public.o)
 .text          0x0000000000000000        0x0 bl2/ext/mcuboot/bootutil/libbootutil.a(image_validate.o)
 .data          0x0000000000000000        0x0 bl2/ext/mcuboot/bootutil/libbootutil.a(image_validate.o)
 .bss           0x0000000000000000        0x0 bl2/ext/mcuboot/bootutil/libbootutil.a(image_validate.o)
 .text          0x0000000000000000        0x0 bl2/ext/mcuboot/bootutil/libbootutil.a(image_ecdsa.o)
 .data          0x0000000000000000        0x0 bl2/ext/mcuboot/bootutil/libbootutil.a(image_ecdsa.o)
 .bss           0x0000000000000000        0x0 bl2/ext/mcuboot/bootutil/libbootutil.a(image_ecdsa.o)
 .text          0x0000000000000000        0x0 platform/libplatform_bl2.a(system_stm32l5xx.o)
 .data          0x0000000000000000        0x0 platform/libplatform_bl2.a(system_stm32l5xx.o)
 .bss           0x0000000000000000        0x0 platform/libplatform_bl2.a(system_stm32l5xx.o)
 .text          0x0000000000000000        0x0 platform/libplatform_bl2.a(boot_hal_bl2.o)
 .data          0x0000000000000000        0x0 platform/libplatform_bl2.a(boot_hal_bl2.o)
 .bss           0x0000000000000000        0x0 platform/libplatform_bl2.a(boot_hal_bl2.o)
 .text          0x0000000000000000        0x0 platform/libplatform_bl2.a(tfm_low_level_security.o)
 .data          0x0000000000000000        0x0 platform/libplatform_bl2.a(tfm_low_level_security.o)
 .bss           0x0000000000000000        0x0 platform/libplatform_bl2.a(tfm_low_level_security.o)
 .text          0x0000000000000000        0x0 platform/libplatform_bl2.a(low_level_flash.o)
 .data          0x0000000000000000        0x0 platform/libplatform_bl2.a(low_level_flash.o)
 .bss           0x0000000000000000        0x0 platform/libplatform_bl2.a(low_level_flash.o)
 .text          0x0000000000000000        0x0 platform/libplatform_bl2.a(stm32l5xx_hal.o)
 .data          0x0000000000000000        0x0 platform/libplatform_bl2.a(stm32l5xx_hal.o)
 .bss           0x0000000000000000        0x0 platform/libplatform_bl2.a(stm32l5xx_hal.o)
 .text.HAL_MspDeInit
                0x0000000000000000        0x2 platform/libplatform_bl2.a(stm32l5xx_hal.o)
 .text.HAL_DeInit
                0x0000000000000000       0x30 platform/libplatform_bl2.a(stm32l5xx_hal.o)
 .text.HAL_InitTick
                0x0000000000000000       0x4c platform/libplatform_bl2.a(stm32l5xx_hal.o)
 .text.HAL_IncTick
                0x0000000000000000       0x18 platform/libplatform_bl2.a(stm32l5xx_hal.o)
 .text.HAL_GetTick
                0x0000000000000000        0xc platform/libplatform_bl2.a(stm32l5xx_hal.o)
 .text.HAL_GetTickPrio
                0x0000000000000000        0xc platform/libplatform_bl2.a(stm32l5xx_hal.o)
 .text.HAL_SetTickFreq
                0x0000000000000000       0x28 platform/libplatform_bl2.a(stm32l5xx_hal.o)
 .text.HAL_GetTickFreq
                0x0000000000000000        0xc platform/libplatform_bl2.a(stm32l5xx_hal.o)
 .text.HAL_Delay
                0x0000000000000000       0x24 platform/libplatform_bl2.a(stm32l5xx_hal.o)
 .text.HAL_SuspendTick
                0x0000000000000000        0xe platform/libplatform_bl2.a(stm32l5xx_hal.o)
 .text.HAL_ResumeTick
                0x0000000000000000        0xe platform/libplatform_bl2.a(stm32l5xx_hal.o)
 .text.HAL_GetHalVersion
                0x0000000000000000        0x8 platform/libplatform_bl2.a(stm32l5xx_hal.o)
 .text.HAL_GetREVID
                0x0000000000000000        0xc platform/libplatform_bl2.a(stm32l5xx_hal.o)
 .text.HAL_GetDEVID
                0x0000000000000000       0x10 platform/libplatform_bl2.a(stm32l5xx_hal.o)
 .text.HAL_GetUIDw0
                0x0000000000000000        0xc platform/libplatform_bl2.a(stm32l5xx_hal.o)
 .text.HAL_GetUIDw1
                0x0000000000000000        0xc platform/libplatform_bl2.a(stm32l5xx_hal.o)
 .text.HAL_GetUIDw2
                0x0000000000000000        0xc platform/libplatform_bl2.a(stm32l5xx_hal.o)
 .text.HAL_DBGMCU_EnableDBGStopMode
                0x0000000000000000       0x10 platform/libplatform_bl2.a(stm32l5xx_hal.o)
 .text.HAL_DBGMCU_DisableDBGStopMode
                0x0000000000000000       0x10 platform/libplatform_bl2.a(stm32l5xx_hal.o)
 .text.HAL_DBGMCU_EnableDBGStandbyMode
                0x0000000000000000       0x10 platform/libplatform_bl2.a(stm32l5xx_hal.o)
 .text.HAL_DBGMCU_DisableDBGStandbyMode
                0x0000000000000000       0x10 platform/libplatform_bl2.a(stm32l5xx_hal.o)
 .text.HAL_SYSCFG_SRAM2Erase
                0x0000000000000000       0x18 platform/libplatform_bl2.a(stm32l5xx_hal.o)
 .text.HAL_SYSCFG_VREFBUF_HighImpedanceConfig
                0x0000000000000000       0x14 platform/libplatform_bl2.a(stm32l5xx_hal.o)
 .text.HAL_SYSCFG_VREFBUF_TrimmingConfig
                0x0000000000000000       0x14 platform/libplatform_bl2.a(stm32l5xx_hal.o)
 .text.HAL_SYSCFG_VREFBUF_VoltageScalingConfig
                0x0000000000000000       0x2c platform/libplatform_bl2.a(stm32l5xx_hal.o)
 .text.HAL_SYSCFG_EnableVREFBUF
                0x0000000000000000       0x30 platform/libplatform_bl2.a(stm32l5xx_hal.o)
 .text.HAL_SYSCFG_DisableVREFBUF
                0x0000000000000000       0x10 platform/libplatform_bl2.a(stm32l5xx_hal.o)
 .text.HAL_SYSCFG_EnableIOAnalogBooster
                0x0000000000000000       0x14 platform/libplatform_bl2.a(stm32l5xx_hal.o)
 .text.HAL_SYSCFG_DisableIOAnalogBooster
                0x0000000000000000       0x10 platform/libplatform_bl2.a(stm32l5xx_hal.o)
 .text.HAL_SYSCFG_EnableIOAnalogSwitchVdd
                0x0000000000000000       0x14 platform/libplatform_bl2.a(stm32l5xx_hal.o)
 .text.HAL_SYSCFG_DisableIOAnalogSwitchVdd
                0x0000000000000000       0x10 platform/libplatform_bl2.a(stm32l5xx_hal.o)
 .text.HAL_SYSCFG_Lock
                0x0000000000000000       0x10 platform/libplatform_bl2.a(stm32l5xx_hal.o)
 .text.HAL_SYSCFG_GetLock
                0x0000000000000000       0x1c platform/libplatform_bl2.a(stm32l5xx_hal.o)
 .text.HAL_SYSCFG_ConfigAttributes
                0x0000000000000000       0x14 platform/libplatform_bl2.a(stm32l5xx_hal.o)
 .text.HAL_SYSCFG_GetConfigAttributes
                0x0000000000000000       0x1c platform/libplatform_bl2.a(stm32l5xx_hal.o)
 .data.uwTickFreq
                0x0000000000000000        0x1 platform/libplatform_bl2.a(stm32l5xx_hal.o)
 .bss.uwTick    0x0000000000000000        0x4 platform/libplatform_bl2.a(stm32l5xx_hal.o)
 .text          0x0000000000000000        0x0 platform/libplatform_bl2.a(stm32l5xx_hal_flash.o)
 .data          0x0000000000000000        0x0 platform/libplatform_bl2.a(stm32l5xx_hal_flash.o)
 .bss           0x0000000000000000        0x0 platform/libplatform_bl2.a(stm32l5xx_hal_flash.o)
 .text.HAL_FLASH_EndOfOperationCallback
                0x0000000000000000        0x2 platform/libplatform_bl2.a(stm32l5xx_hal_flash.o)
 .text.HAL_FLASH_OperationErrorCallback
                0x0000000000000000        0x2 platform/libplatform_bl2.a(stm32l5xx_hal_flash.o)
 .text.HAL_FLASH_IRQHandler
                0x0000000000000000       0xdc platform/libplatform_bl2.a(stm32l5xx_hal_flash.o)
 .text.HAL_FLASH_OB_Lock
                0x0000000000000000       0x1c platform/libplatform_bl2.a(stm32l5xx_hal_flash.o)
 .text.HAL_FLASH_GetError
                0x0000000000000000        0xc platform/libplatform_bl2.a(stm32l5xx_hal_flash.o)
 .text.HAL_FLASH_Program_IT
                0x0000000000000000       0x6c platform/libplatform_bl2.a(stm32l5xx_hal_flash.o)
 .text          0x0000000000000000        0x0 platform/libplatform_bl2.a(stm32l5xx_hal_flash_ex.o)
 .data          0x0000000000000000        0x0 platform/libplatform_bl2.a(stm32l5xx_hal_flash_ex.o)
 .bss           0x0000000000000000        0x0 platform/libplatform_bl2.a(stm32l5xx_hal_flash_ex.o)
 .text.HAL_FLASHEx_ConfigBBAttributes
                0x0000000000000000       0x54 platform/libplatform_bl2.a(stm32l5xx_hal_flash_ex.o)
 .text.HAL_FLASHEx_GetConfigBBAttributes
                0x0000000000000000       0x30 platform/libplatform_bl2.a(stm32l5xx_hal_flash_ex.o)
 .text.HAL_FLASHEx_EnableSecHideProtection
                0x0000000000000000       0x2c platform/libplatform_bl2.a(stm32l5xx_hal_flash_ex.o)
 .text.HAL_FLASHEx_GetPrivMode
                0x0000000000000000       0x10 platform/libplatform_bl2.a(stm32l5xx_hal_flash_ex.o)
 .text.HAL_FLASHEx_ConfigSecInversion
                0x0000000000000000       0x38 platform/libplatform_bl2.a(stm32l5xx_hal_flash_ex.o)
 .text.HAL_FLASHEx_GetSecInversion
                0x0000000000000000       0x10 platform/libplatform_bl2.a(stm32l5xx_hal_flash_ex.o)
 .text.HAL_FLASHEx_ConfigLVEPin
                0x0000000000000000       0x64 platform/libplatform_bl2.a(stm32l5xx_hal_flash_ex.o)
 .text.HAL_FLASHEx_GetLVEPin
                0x0000000000000000       0x10 platform/libplatform_bl2.a(stm32l5xx_hal_flash_ex.o)
 .text.HAL_FLASHEx_Erase_IT
                0x0000000000000000       0x78 platform/libplatform_bl2.a(stm32l5xx_hal_flash_ex.o)
 .text          0x0000000000000000        0x0 platform/libplatform_bl2.a(stm32l5xx_hal_pwr_ex.o)
 .data          0x0000000000000000        0x0 platform/libplatform_bl2.a(stm32l5xx_hal_pwr_ex.o)
 .bss           0x0000000000000000        0x0 platform/libplatform_bl2.a(stm32l5xx_hal_pwr_ex.o)
 .text.HAL_PWREx_EnableBatteryCharging
                0x0000000000000000       0x1c platform/libplatform_bl2.a(stm32l5xx_hal_pwr_ex.o)
 .text.HAL_PWREx_DisableBatteryCharging
                0x0000000000000000       0x10 platform/libplatform_bl2.a(stm32l5xx_hal_pwr_ex.o)
 .text.HAL_PWREx_EnableVddUSB
                0x0000000000000000       0x10 platform/libplatform_bl2.a(stm32l5xx_hal_pwr_ex.o)
 .text.HAL_PWREx_DisableVddUSB
                0x0000000000000000       0x10 platform/libplatform_bl2.a(stm32l5xx_hal_pwr_ex.o)
 .text.HAL_PWREx_DisableVddIO2
                0x0000000000000000       0x10 platform/libplatform_bl2.a(stm32l5xx_hal_pwr_ex.o)
 .text.HAL_PWREx_EnableGPIOPullUp
                0x0000000000000000       0xbc platform/libplatform_bl2.a(stm32l5xx_hal_pwr_ex.o)
 .text.HAL_PWREx_DisableGPIOPullUp
                0x0000000000000000       0x84 platform/libplatform_bl2.a(stm32l5xx_hal_pwr_ex.o)
 .text.HAL_PWREx_EnableGPIOPullDown
                0x0000000000000000       0xbc platform/libplatform_bl2.a(stm32l5xx_hal_pwr_ex.o)
 .text.HAL_PWREx_DisableGPIOPullDown
                0x0000000000000000       0x88 platform/libplatform_bl2.a(stm32l5xx_hal_pwr_ex.o)
 .text.HAL_PWREx_EnablePullUpPullDownConfig
                0x0000000000000000       0x10 platform/libplatform_bl2.a(stm32l5xx_hal_pwr_ex.o)
 .text.HAL_PWREx_DisablePullUpPullDownConfig
                0x0000000000000000       0x10 platform/libplatform_bl2.a(stm32l5xx_hal_pwr_ex.o)
 .text.HAL_PWREx_DisableSRAM2ContentRetention
                0x0000000000000000        0x6 platform/libplatform_bl2.a(stm32l5xx_hal_pwr_ex.o)
 .text.HAL_PWREx_EnablePVM1
                0x0000000000000000       0x10 platform/libplatform_bl2.a(stm32l5xx_hal_pwr_ex.o)
 .text.HAL_PWREx_DisablePVM1
                0x0000000000000000       0x10 platform/libplatform_bl2.a(stm32l5xx_hal_pwr_ex.o)
 .text.HAL_PWREx_EnablePVM2
                0x0000000000000000       0x10 platform/libplatform_bl2.a(stm32l5xx_hal_pwr_ex.o)
 .text.HAL_PWREx_DisablePVM2
                0x0000000000000000       0x10 platform/libplatform_bl2.a(stm32l5xx_hal_pwr_ex.o)
 .text.HAL_PWREx_EnablePVM3
                0x0000000000000000       0x10 platform/libplatform_bl2.a(stm32l5xx_hal_pwr_ex.o)
 .text.HAL_PWREx_DisablePVM3
                0x0000000000000000       0x10 platform/libplatform_bl2.a(stm32l5xx_hal_pwr_ex.o)
 .text.HAL_PWREx_EnablePVM4
                0x0000000000000000       0x10 platform/libplatform_bl2.a(stm32l5xx_hal_pwr_ex.o)
 .text.HAL_PWREx_DisablePVM4
                0x0000000000000000       0x10 platform/libplatform_bl2.a(stm32l5xx_hal_pwr_ex.o)
 .text.HAL_PWREx_ConfigPVM
                0x0000000000000000      0x1c4 platform/libplatform_bl2.a(stm32l5xx_hal_pwr_ex.o)
 .text.HAL_PWREx_EnableLowPowerRunMode
                0x0000000000000000       0x10 platform/libplatform_bl2.a(stm32l5xx_hal_pwr_ex.o)
 .text.HAL_PWREx_DisableLowPowerRunMode
                0x0000000000000000       0x48 platform/libplatform_bl2.a(stm32l5xx_hal_pwr_ex.o)
 .text.HAL_PWREx_EnterSTOP0Mode
                0x0000000000000000       0x34 platform/libplatform_bl2.a(stm32l5xx_hal_pwr_ex.o)
 .text.HAL_PWREx_EnterSTOP1Mode
                0x0000000000000000       0x38 platform/libplatform_bl2.a(stm32l5xx_hal_pwr_ex.o)
 .text.HAL_PWREx_EnterSTOP2Mode
                0x0000000000000000       0x38 platform/libplatform_bl2.a(stm32l5xx_hal_pwr_ex.o)
 .text.HAL_PWREx_EnterSHUTDOWNMode
                0x0000000000000000       0x24 platform/libplatform_bl2.a(stm32l5xx_hal_pwr_ex.o)
 .text.HAL_PWREx_PVM1Callback
                0x0000000000000000        0x2 platform/libplatform_bl2.a(stm32l5xx_hal_pwr_ex.o)
 .text.HAL_PWREx_PVM2Callback
                0x0000000000000000        0x2 platform/libplatform_bl2.a(stm32l5xx_hal_pwr_ex.o)
 .text.HAL_PWREx_PVM3Callback
                0x0000000000000000        0x2 platform/libplatform_bl2.a(stm32l5xx_hal_pwr_ex.o)
 .text.HAL_PWREx_PVM4Callback
                0x0000000000000000        0x2 platform/libplatform_bl2.a(stm32l5xx_hal_pwr_ex.o)
 .text.HAL_PWREx_PVD_PVM_IRQHandler
                0x0000000000000000       0x64 platform/libplatform_bl2.a(stm32l5xx_hal_pwr_ex.o)
 .text.HAL_PWREx_EnableUCPDStandbyMode
                0x0000000000000000       0x10 platform/libplatform_bl2.a(stm32l5xx_hal_pwr_ex.o)
 .text.HAL_PWREx_DisableUCPDStandbyMode
                0x0000000000000000       0x10 platform/libplatform_bl2.a(stm32l5xx_hal_pwr_ex.o)
 .text.HAL_PWREx_EnableUCPDDeadBattery
                0x0000000000000000       0x10 platform/libplatform_bl2.a(stm32l5xx_hal_pwr_ex.o)
 .text.HAL_PWREx_DisableUCPDDeadBattery
                0x0000000000000000       0x10 platform/libplatform_bl2.a(stm32l5xx_hal_pwr_ex.o)
 .text.HAL_PWREx_EnableUltraLowPowerMode
                0x0000000000000000       0x10 platform/libplatform_bl2.a(stm32l5xx_hal_pwr_ex.o)
 .text.HAL_PWREx_DisableUltraLowPowerMode
                0x0000000000000000       0x10 platform/libplatform_bl2.a(stm32l5xx_hal_pwr_ex.o)
 .text.HAL_PWREx_SMPS_EnableFastStart
                0x0000000000000000       0x10 platform/libplatform_bl2.a(stm32l5xx_hal_pwr_ex.o)
 .text.HAL_PWREx_SMPS_DisableFastStart
                0x0000000000000000       0x10 platform/libplatform_bl2.a(stm32l5xx_hal_pwr_ex.o)
 .text.HAL_PWREx_SMPS_DisableBypassMode
                0x0000000000000000       0x10 platform/libplatform_bl2.a(stm32l5xx_hal_pwr_ex.o)
 .text.HAL_PWREx_SMPS_EnableBypassMode
                0x0000000000000000       0x10 platform/libplatform_bl2.a(stm32l5xx_hal_pwr_ex.o)
 .text.HAL_PWREx_SMPS_SetMode
                0x0000000000000000       0x84 platform/libplatform_bl2.a(stm32l5xx_hal_pwr_ex.o)
 .text.HAL_PWREx_SMPS_EnableExternal
                0x0000000000000000       0x10 platform/libplatform_bl2.a(stm32l5xx_hal_pwr_ex.o)
 .text.HAL_PWREx_SMPS_DisableExternal
                0x0000000000000000       0x10 platform/libplatform_bl2.a(stm32l5xx_hal_pwr_ex.o)
 .text.HAL_PWREx_SMPS_GetMainRegulatorExtSMPSReadyStatus
                0x0000000000000000       0x10 platform/libplatform_bl2.a(stm32l5xx_hal_pwr_ex.o)
 .text          0x0000000000000000        0x0 platform/libplatform_bl2.a(stm32l5xx_hal_pwr.o)
 .data          0x0000000000000000        0x0 platform/libplatform_bl2.a(stm32l5xx_hal_pwr.o)
 .bss           0x0000000000000000        0x0 platform/libplatform_bl2.a(stm32l5xx_hal_pwr.o)
 .text.HAL_PWR_DeInit
                0x0000000000000000       0x18 platform/libplatform_bl2.a(stm32l5xx_hal_pwr.o)
 .text.HAL_PWR_EnableBkUpAccess
                0x0000000000000000       0x10 platform/libplatform_bl2.a(stm32l5xx_hal_pwr.o)
 .text.HAL_PWR_DisableBkUpAccess
                0x0000000000000000       0x10 platform/libplatform_bl2.a(stm32l5xx_hal_pwr.o)
 .text.HAL_PWR_ConfigPVD
                0x0000000000000000       0x88 platform/libplatform_bl2.a(stm32l5xx_hal_pwr.o)
 .text.HAL_PWR_EnablePVD
                0x0000000000000000       0x10 platform/libplatform_bl2.a(stm32l5xx_hal_pwr.o)
 .text.HAL_PWR_DisablePVD
                0x0000000000000000       0x10 platform/libplatform_bl2.a(stm32l5xx_hal_pwr.o)
 .text.HAL_PWR_EnableWakeUpPin
                0x0000000000000000       0x20 platform/libplatform_bl2.a(stm32l5xx_hal_pwr.o)
 .text.HAL_PWR_DisableWakeUpPin
                0x0000000000000000       0x14 platform/libplatform_bl2.a(stm32l5xx_hal_pwr.o)
 .text.HAL_PWR_EnterSLEEPMode
                0x0000000000000000       0x40 platform/libplatform_bl2.a(stm32l5xx_hal_pwr.o)
 .text.HAL_PWR_EnterSTOPMode
                0x0000000000000000       0x12 platform/libplatform_bl2.a(stm32l5xx_hal_pwr.o)
 .text.HAL_PWR_EnterSTANDBYMode
                0x0000000000000000       0x24 platform/libplatform_bl2.a(stm32l5xx_hal_pwr.o)
 .text.HAL_PWR_EnableSleepOnExit
                0x0000000000000000       0x10 platform/libplatform_bl2.a(stm32l5xx_hal_pwr.o)
 .text.HAL_PWR_DisableSleepOnExit
                0x0000000000000000       0x10 platform/libplatform_bl2.a(stm32l5xx_hal_pwr.o)
 .text.HAL_PWR_EnableSEVOnPend
                0x0000000000000000       0x10 platform/libplatform_bl2.a(stm32l5xx_hal_pwr.o)
 .text.HAL_PWR_DisableSEVOnPend
                0x0000000000000000       0x10 platform/libplatform_bl2.a(stm32l5xx_hal_pwr.o)
 .text.HAL_PWR_PVDCallback
                0x0000000000000000        0x2 platform/libplatform_bl2.a(stm32l5xx_hal_pwr.o)
 .text.HAL_PWR_ConfigAttributes
                0x0000000000000000       0x4c platform/libplatform_bl2.a(stm32l5xx_hal_pwr.o)
 .text.HAL_PWR_GetConfigAttributes
                0x0000000000000000       0x34 platform/libplatform_bl2.a(stm32l5xx_hal_pwr.o)
 .debug_info    0x0000000000000000      0xd9e platform/libplatform_bl2.a(stm32l5xx_hal_pwr.o)
 .debug_abbrev  0x0000000000000000      0x20b platform/libplatform_bl2.a(stm32l5xx_hal_pwr.o)
 .debug_loc     0x0000000000000000      0x1e8 platform/libplatform_bl2.a(stm32l5xx_hal_pwr.o)
 .debug_aranges
                0x0000000000000000       0xa8 platform/libplatform_bl2.a(stm32l5xx_hal_pwr.o)
 .debug_ranges  0x0000000000000000       0x98 platform/libplatform_bl2.a(stm32l5xx_hal_pwr.o)
 .debug_line    0x0000000000000000      0x633 platform/libplatform_bl2.a(stm32l5xx_hal_pwr.o)
 .debug_str     0x0000000000000000      0x8cf platform/libplatform_bl2.a(stm32l5xx_hal_pwr.o)
 .comment       0x0000000000000000       0x21 platform/libplatform_bl2.a(stm32l5xx_hal_pwr.o)
 .debug_frame   0x0000000000000000      0x138 platform/libplatform_bl2.a(stm32l5xx_hal_pwr.o)
 .ARM.attributes
                0x0000000000000000       0x34 platform/libplatform_bl2.a(stm32l5xx_hal_pwr.o)
 .text          0x0000000000000000        0x0 platform/libplatform_bl2.a(stm32l5xx_hal_rcc.o)
 .data          0x0000000000000000        0x0 platform/libplatform_bl2.a(stm32l5xx_hal_rcc.o)
 .bss           0x0000000000000000        0x0 platform/libplatform_bl2.a(stm32l5xx_hal_rcc.o)
 .text.HAL_RCC_DeInit
                0x0000000000000000      0x1a8 platform/libplatform_bl2.a(stm32l5xx_hal_rcc.o)
 .text.HAL_RCC_MCOConfig
                0x0000000000000000       0x50 platform/libplatform_bl2.a(stm32l5xx_hal_rcc.o)
 .text.HAL_RCC_GetOscConfig
                0x0000000000000000       0xdc platform/libplatform_bl2.a(stm32l5xx_hal_rcc.o)
 .text.HAL_RCC_GetClockConfig
                0x0000000000000000       0x3c platform/libplatform_bl2.a(stm32l5xx_hal_rcc.o)
 .text.HAL_RCC_EnableCSS
                0x0000000000000000       0x10 platform/libplatform_bl2.a(stm32l5xx_hal_rcc.o)
 .text.HAL_RCC_CSSCallback
                0x0000000000000000        0x2 platform/libplatform_bl2.a(stm32l5xx_hal_rcc.o)
 .text.HAL_RCC_NMI_IRQHandler
                0x0000000000000000       0x1c platform/libplatform_bl2.a(stm32l5xx_hal_rcc.o)
 .text.HAL_RCC_ConfigAttributes
                0x0000000000000000       0x4c platform/libplatform_bl2.a(stm32l5xx_hal_rcc.o)
 .text.HAL_RCC_GetConfigAttributes
                0x0000000000000000       0x30 platform/libplatform_bl2.a(stm32l5xx_hal_rcc.o)
 .text          0x0000000000000000        0x0 platform/libplatform_bl2.a(stm32l5xx_hal_cortex.o)
 .data          0x0000000000000000        0x0 platform/libplatform_bl2.a(stm32l5xx_hal_cortex.o)
 .bss           0x0000000000000000        0x0 platform/libplatform_bl2.a(stm32l5xx_hal_cortex.o)
 .text.MPU_ConfigRegion
                0x0000000000000000       0x3e platform/libplatform_bl2.a(stm32l5xx_hal_cortex.o)
 .text.MPU_ConfigMemoryAttributes
                0x0000000000000000       0x2a platform/libplatform_bl2.a(stm32l5xx_hal_cortex.o)
 .text.HAL_NVIC_SetPriority
                0x0000000000000000       0x60 platform/libplatform_bl2.a(stm32l5xx_hal_cortex.o)
 .text.HAL_NVIC_EnableIRQ
                0x0000000000000000       0x1c platform/libplatform_bl2.a(stm32l5xx_hal_cortex.o)
 .text.HAL_NVIC_DisableIRQ
                0x0000000000000000       0x24 platform/libplatform_bl2.a(stm32l5xx_hal_cortex.o)
 .text.HAL_SYSTICK_Config
                0x0000000000000000       0x28 platform/libplatform_bl2.a(stm32l5xx_hal_cortex.o)
 .text.HAL_NVIC_GetPriorityGrouping
                0x0000000000000000       0x10 platform/libplatform_bl2.a(stm32l5xx_hal_cortex.o)
 .text.HAL_NVIC_GetPriority
                0x0000000000000000       0x5c platform/libplatform_bl2.a(stm32l5xx_hal_cortex.o)
 .text.HAL_NVIC_SetPendingIRQ
                0x0000000000000000       0x1c platform/libplatform_bl2.a(stm32l5xx_hal_cortex.o)
 .text.HAL_NVIC_GetPendingIRQ
                0x0000000000000000       0x24 platform/libplatform_bl2.a(stm32l5xx_hal_cortex.o)
 .text.HAL_NVIC_ClearPendingIRQ
                0x0000000000000000       0x1c platform/libplatform_bl2.a(stm32l5xx_hal_cortex.o)
 .text.HAL_NVIC_GetActive
                0x0000000000000000       0x24 platform/libplatform_bl2.a(stm32l5xx_hal_cortex.o)
 .text.HAL_SYSTICK_CLKSourceConfig
                0x0000000000000000       0x16 platform/libplatform_bl2.a(stm32l5xx_hal_cortex.o)
 .text.HAL_SYSTICK_Callback
                0x0000000000000000        0x2 platform/libplatform_bl2.a(stm32l5xx_hal_cortex.o)
 .text.HAL_SYSTICK_IRQHandler
                0x0000000000000000        0x8 platform/libplatform_bl2.a(stm32l5xx_hal_cortex.o)
 .text.HAL_MPU_Enable
                0x0000000000000000       0x20 platform/libplatform_bl2.a(stm32l5xx_hal_cortex.o)
 .text.HAL_MPU_Disable
                0x0000000000000000       0x18 platform/libplatform_bl2.a(stm32l5xx_hal_cortex.o)
 .text.HAL_MPU_ConfigRegion
                0x0000000000000000        0xc platform/libplatform_bl2.a(stm32l5xx_hal_cortex.o)
 .text.HAL_MPU_ConfigMemoryAttributes
                0x0000000000000000        0xc platform/libplatform_bl2.a(stm32l5xx_hal_cortex.o)
 .text.HAL_MPU_Enable_NS
                0x0000000000000000       0x20 platform/libplatform_bl2.a(stm32l5xx_hal_cortex.o)
 .text.HAL_MPU_Disable_NS
                0x0000000000000000       0x18 platform/libplatform_bl2.a(stm32l5xx_hal_cortex.o)
 .text.HAL_MPU_ConfigRegion_NS
                0x0000000000000000        0xc platform/libplatform_bl2.a(stm32l5xx_hal_cortex.o)
 .text.HAL_MPU_ConfigMemoryAttributes_NS
                0x0000000000000000        0xc platform/libplatform_bl2.a(stm32l5xx_hal_cortex.o)
 .text          0x0000000000000000        0x0 platform/libplatform_bl2.a(stm32l5xx_hal_gpio.o)
 .data          0x0000000000000000        0x0 platform/libplatform_bl2.a(stm32l5xx_hal_gpio.o)
 .bss           0x0000000000000000        0x0 platform/libplatform_bl2.a(stm32l5xx_hal_gpio.o)
 .text.HAL_GPIO_DeInit
                0x0000000000000000      0x114 platform/libplatform_bl2.a(stm32l5xx_hal_gpio.o)
 .text.HAL_GPIO_ReadPin
                0x0000000000000000        0xc platform/libplatform_bl2.a(stm32l5xx_hal_gpio.o)
 .text.HAL_GPIO_WritePin
                0x0000000000000000        0xa platform/libplatform_bl2.a(stm32l5xx_hal_gpio.o)
 .text.HAL_GPIO_TogglePin
                0x0000000000000000       0x12 platform/libplatform_bl2.a(stm32l5xx_hal_gpio.o)
 .text.HAL_GPIO_LockPin
                0x0000000000000000       0x2a platform/libplatform_bl2.a(stm32l5xx_hal_gpio.o)
 .text.HAL_GPIO_EXTI_Rising_Callback
                0x0000000000000000        0x2 platform/libplatform_bl2.a(stm32l5xx_hal_gpio.o)
 .text.HAL_GPIO_EXTI_Falling_Callback
                0x0000000000000000        0x2 platform/libplatform_bl2.a(stm32l5xx_hal_gpio.o)
 .text.HAL_GPIO_EXTI_IRQHandler
                0x0000000000000000       0x28 platform/libplatform_bl2.a(stm32l5xx_hal_gpio.o)
 .text.HAL_GPIO_ConfigPinAttributes
                0x0000000000000000       0x26 platform/libplatform_bl2.a(stm32l5xx_hal_gpio.o)
 .text.HAL_GPIO_GetConfigPinAttributes
                0x0000000000000000       0x30 platform/libplatform_bl2.a(stm32l5xx_hal_gpio.o)
 .text          0x0000000000000000        0x0 platform/libplatform_bl2.a(stm32l5xx_hal_gtzc.o)
 .data          0x0000000000000000        0x0 platform/libplatform_bl2.a(stm32l5xx_hal_gtzc.o)
 .bss           0x0000000000000000        0x0 platform/libplatform_bl2.a(stm32l5xx_hal_gtzc.o)
 .text.HAL_GTZC_TZSC_ConfigPeriphAttributes
                0x0000000000000000       0xe4 platform/libplatform_bl2.a(stm32l5xx_hal_gtzc.o)
 .text.HAL_GTZC_TZSC_GetConfigPeriphAttributes
                0x0000000000000000      0x108 platform/libplatform_bl2.a(stm32l5xx_hal_gtzc.o)
 .text.HAL_GTZC_TZSC_MPCWM_ConfigMemAttributes
                0x0000000000000000       0x94 platform/libplatform_bl2.a(stm32l5xx_hal_gtzc.o)
 .text.HAL_GTZC_TZSC_MPCWM_GetConfigMemAttributes
                0x0000000000000000       0x80 platform/libplatform_bl2.a(stm32l5xx_hal_gtzc.o)
 .text.HAL_GTZC_TZSC_Lock
                0x0000000000000000        0xa platform/libplatform_bl2.a(stm32l5xx_hal_gtzc.o)
 .text.HAL_GTZC_TZSC_GetLock
                0x0000000000000000        0x8 platform/libplatform_bl2.a(stm32l5xx_hal_gtzc.o)
 .text.HAL_GTZC_MPCBB_ConfigMemAttributes
                0x0000000000000000       0xfc platform/libplatform_bl2.a(stm32l5xx_hal_gtzc.o)
 .text.HAL_GTZC_MPCBB_GetConfigMemAttributes
                0x0000000000000000       0xd0 platform/libplatform_bl2.a(stm32l5xx_hal_gtzc.o)
 .text.HAL_GTZC_MPCBB_LockConfig
                0x0000000000000000       0xb8 platform/libplatform_bl2.a(stm32l5xx_hal_gtzc.o)
 .text.HAL_GTZC_MPCBB_GetLockConfig
                0x0000000000000000       0x98 platform/libplatform_bl2.a(stm32l5xx_hal_gtzc.o)
 .text.HAL_GTZC_MPCBB_Lock
                0x0000000000000000       0x34 platform/libplatform_bl2.a(stm32l5xx_hal_gtzc.o)
 .text.HAL_GTZC_MPCBB_GetLock
                0x0000000000000000       0x30 platform/libplatform_bl2.a(stm32l5xx_hal_gtzc.o)
 .text.HAL_GTZC_TZIC_DisableIT
                0x0000000000000000       0x44 platform/libplatform_bl2.a(stm32l5xx_hal_gtzc.o)
 .text.HAL_GTZC_TZIC_EnableIT
                0x0000000000000000       0x4c platform/libplatform_bl2.a(stm32l5xx_hal_gtzc.o)
 .text.HAL_GTZC_TZIC_GetFlag
                0x0000000000000000       0x8c platform/libplatform_bl2.a(stm32l5xx_hal_gtzc.o)
 .text.HAL_GTZC_TZIC_ClearFlag
                0x0000000000000000       0x4c platform/libplatform_bl2.a(stm32l5xx_hal_gtzc.o)
 .text.HAL_GTZC_TZIC_Callback
                0x0000000000000000        0x2 platform/libplatform_bl2.a(stm32l5xx_hal_gtzc.o)
 .text.HAL_GTZC_IRQHandler
                0x0000000000000000       0x74 platform/libplatform_bl2.a(stm32l5xx_hal_gtzc.o)
 .text          0x0000000000000000        0x0 platform/libplatform_bl2.a(low_level_rng.o)
 .data          0x0000000000000000        0x0 platform/libplatform_bl2.a(low_level_rng.o)
 .bss           0x0000000000000000        0x0 platform/libplatform_bl2.a(low_level_rng.o)
 .text.mbedtls_hardware_poll
                0x0000000000000000       0x80 platform/libplatform_bl2.a(low_level_rng.o)
 .text          0x0000000000000000        0x0 platform/libplatform_bl2.a(boot_hal_bl2.o)
 .data          0x0000000000000000        0x0 platform/libplatform_bl2.a(boot_hal_bl2.o)
 .bss           0x0000000000000000        0x0 platform/libplatform_bl2.a(boot_hal_bl2.o)
 .text.boot_clear_ram_area
                0x0000000000000000       0x1c platform/libplatform_bl2.a(boot_hal_bl2.o)
 .text.boot_jump_to_next_image
                0x0000000000000000       0x22 platform/libplatform_bl2.a(boot_hal_bl2.o)
 .text.boot_platform_init
                0x0000000000000000       0x20 platform/libplatform_bl2.a(boot_hal_bl2.o)
 .text.boot_platform_quit
                0x0000000000000000       0x3c platform/libplatform_bl2.a(boot_hal_bl2.o)
 .bss.vt_cpy.0  0x0000000000000000        0x4 platform/libplatform_bl2.a(boot_hal_bl2.o)
 .text          0x0000000000000000        0x0 platform/libplatform_bl2.a(uart_stdout.o)
 .data          0x0000000000000000        0x0 platform/libplatform_bl2.a(uart_stdout.o)
 .bss           0x0000000000000000        0x0 platform/libplatform_bl2.a(uart_stdout.o)
 .text          0x0000000000000000        0x0 platform/libplatform_bl2.a(nv_counters.o)
 .data          0x0000000000000000        0x0 platform/libplatform_bl2.a(nv_counters.o)
 .bss           0x0000000000000000        0x0 platform/libplatform_bl2.a(nv_counters.o)
 .text.tfm_plat_increment_nv_counter
                0x0000000000000000       0x24 platform/libplatform_bl2.a(nv_counters.o)
 .text          0x0000000000000000        0x0 platform/libplatform_bl2.a(flash_otp_nv_counters_backend.o)
 .data          0x0000000000000000        0x0 platform/libplatform_bl2.a(flash_otp_nv_counters_backend.o)
 .bss           0x0000000000000000        0x0 platform/libplatform_bl2.a(flash_otp_nv_counters_backend.o)
 .text          0x0000000000000000        0x0 platform/libplatform_bl2.a(otp_flash.o)
 .data          0x0000000000000000        0x0 platform/libplatform_bl2.a(otp_flash.o)
 .bss           0x0000000000000000        0x0 platform/libplatform_bl2.a(otp_flash.o)
 .text          0x0000000000000000        0x0 platform/libplatform_bl2.a(low_level_device.o)
 .data          0x0000000000000000        0x0 platform/libplatform_bl2.a(low_level_device.o)
 .bss           0x0000000000000000        0x0 platform/libplatform_bl2.a(low_level_device.o)
 .text          0x0000000000000000        0x0 platform/libplatform_bl2.a(low_level_com.o)
 .data          0x0000000000000000        0x0 platform/libplatform_bl2.a(low_level_com.o)
 .bss           0x0000000000000000        0x0 platform/libplatform_bl2.a(low_level_com.o)
 .text          0x0000000000000000        0x0 platform/libplatform_bl2.a(stm32l5xx_hal_rcc_ex.o)
 .data          0x0000000000000000        0x0 platform/libplatform_bl2.a(stm32l5xx_hal_rcc_ex.o)
 .bss           0x0000000000000000        0x0 platform/libplatform_bl2.a(stm32l5xx_hal_rcc_ex.o)
 .text.RCCEx_PLLSource_Enable
                0x0000000000000000       0xa8 platform/libplatform_bl2.a(stm32l5xx_hal_rcc_ex.o)
 .text.RCCEx_PLLSAI1_GetVCOFreq
                0x0000000000000000       0x60 platform/libplatform_bl2.a(stm32l5xx_hal_rcc_ex.o)
 .text.RCCEx_GetSAIxPeriphCLKFreq
                0x0000000000000000      0x164 platform/libplatform_bl2.a(stm32l5xx_hal_rcc_ex.o)
 .text.HAL_RCCEx_GetPeriphCLKConfig
                0x0000000000000000      0x17c platform/libplatform_bl2.a(stm32l5xx_hal_rcc_ex.o)
 .text.HAL_RCCEx_GetPeriphCLKFreq
                0x0000000000000000      0x5b8 platform/libplatform_bl2.a(stm32l5xx_hal_rcc_ex.o)
 .text.HAL_RCCEx_EnablePLLSAI1
                0x0000000000000000       0xa8 platform/libplatform_bl2.a(stm32l5xx_hal_rcc_ex.o)
 .text.HAL_RCCEx_DisablePLLSAI1
                0x0000000000000000       0x44 platform/libplatform_bl2.a(stm32l5xx_hal_rcc_ex.o)
 .text.HAL_RCCEx_EnablePLLSAI2
                0x0000000000000000       0x90 platform/libplatform_bl2.a(stm32l5xx_hal_rcc_ex.o)
 .text.HAL_RCCEx_DisablePLLSAI2
                0x0000000000000000       0x44 platform/libplatform_bl2.a(stm32l5xx_hal_rcc_ex.o)
 .text.HAL_RCCEx_WakeUpStopCLKConfig
                0x0000000000000000       0x14 platform/libplatform_bl2.a(stm32l5xx_hal_rcc_ex.o)
 .text.HAL_RCCEx_StandbyMSIRangeConfig
                0x0000000000000000       0x18 platform/libplatform_bl2.a(stm32l5xx_hal_rcc_ex.o)
 .text.HAL_RCCEx_EnableLSECSS
                0x0000000000000000       0x14 platform/libplatform_bl2.a(stm32l5xx_hal_rcc_ex.o)
 .text.HAL_RCCEx_DisableLSECSS
                0x0000000000000000       0x14 platform/libplatform_bl2.a(stm32l5xx_hal_rcc_ex.o)
 .text.HAL_RCCEx_LSECSS_Callback
                0x0000000000000000        0x2 platform/libplatform_bl2.a(stm32l5xx_hal_rcc_ex.o)
 .text.HAL_RCCEx_LSECSS_IRQHandler
                0x0000000000000000       0x18 platform/libplatform_bl2.a(stm32l5xx_hal_rcc_ex.o)
 .text.HAL_RCCEx_EnableLSCO
                0x0000000000000000       0xa4 platform/libplatform_bl2.a(stm32l5xx_hal_rcc_ex.o)
 .text.HAL_RCCEx_DisableLSCO
                0x0000000000000000       0x8c platform/libplatform_bl2.a(stm32l5xx_hal_rcc_ex.o)
 .text.HAL_RCCEx_EnableMSIPLLMode
                0x0000000000000000       0x10 platform/libplatform_bl2.a(stm32l5xx_hal_rcc_ex.o)
 .text.HAL_RCCEx_DisableMSIPLLMode
                0x0000000000000000       0x10 platform/libplatform_bl2.a(stm32l5xx_hal_rcc_ex.o)
 .text.HAL_RCCEx_CRSConfig
                0x0000000000000000       0x4c platform/libplatform_bl2.a(stm32l5xx_hal_rcc_ex.o)
 .text.HAL_RCCEx_CRSSoftwareSynchronizationGenerate
                0x0000000000000000       0x10 platform/libplatform_bl2.a(stm32l5xx_hal_rcc_ex.o)
 .text.HAL_RCCEx_CRSGetSynchronizationInfo
                0x0000000000000000       0x24 platform/libplatform_bl2.a(stm32l5xx_hal_rcc_ex.o)
 .text.HAL_RCCEx_CRSWaitSynchronization
                0x0000000000000000       0x9c platform/libplatform_bl2.a(stm32l5xx_hal_rcc_ex.o)
 .text.HAL_RCCEx_CRS_SyncOkCallback
                0x0000000000000000        0x2 platform/libplatform_bl2.a(stm32l5xx_hal_rcc_ex.o)
 .text.HAL_RCCEx_CRS_SyncWarnCallback
                0x0000000000000000        0x2 platform/libplatform_bl2.a(stm32l5xx_hal_rcc_ex.o)
 .text.HAL_RCCEx_CRS_ExpectedSyncCallback
                0x0000000000000000        0x2 platform/libplatform_bl2.a(stm32l5xx_hal_rcc_ex.o)
 .text.HAL_RCCEx_CRS_ErrorCallback
                0x0000000000000000        0x2 platform/libplatform_bl2.a(stm32l5xx_hal_rcc_ex.o)
 .text.HAL_RCCEx_CRS_IRQHandler
                0x0000000000000000       0x74 platform/libplatform_bl2.a(stm32l5xx_hal_rcc_ex.o)
 .text          0x0000000000000000        0x0 platform/libplatform_bl2.a(stm32l5xx_hal_uart.o)
 .data          0x0000000000000000        0x0 platform/libplatform_bl2.a(stm32l5xx_hal_uart.o)
 .bss           0x0000000000000000        0x0 platform/libplatform_bl2.a(stm32l5xx_hal_uart.o)
 .text.UART_EndRxTransfer
                0x0000000000000000       0x32 platform/libplatform_bl2.a(stm32l5xx_hal_uart.o)
 .text.UART_TxISR_8BIT
                0x0000000000000000       0x3c platform/libplatform_bl2.a(stm32l5xx_hal_uart.o)
 .text.UART_TxISR_16BIT
                0x0000000000000000       0x40 platform/libplatform_bl2.a(stm32l5xx_hal_uart.o)
 .text.UART_TxISR_8BIT_FIFOEN
                0x0000000000000000       0x4e platform/libplatform_bl2.a(stm32l5xx_hal_uart.o)
 .text.UART_TxISR_16BIT_FIFOEN
                0x0000000000000000       0x52 platform/libplatform_bl2.a(stm32l5xx_hal_uart.o)
 .text.HAL_UART_MspDeInit
                0x0000000000000000        0x2 platform/libplatform_bl2.a(stm32l5xx_hal_uart.o)
 .text.HAL_UART_DeInit
                0x0000000000000000       0x3c platform/libplatform_bl2.a(stm32l5xx_hal_uart.o)
 .text.HAL_UART_Transmit_IT
                0x0000000000000000       0xac platform/libplatform_bl2.a(stm32l5xx_hal_uart.o)
 .text.HAL_UART_Transmit_DMA
                0x0000000000000000       0x8c platform/libplatform_bl2.a(stm32l5xx_hal_uart.o)
 .text.HAL_UART_DMAPause
                0x0000000000000000       0x5c platform/libplatform_bl2.a(stm32l5xx_hal_uart.o)
 .text.HAL_UART_DMAResume
                0x0000000000000000       0x54 platform/libplatform_bl2.a(stm32l5xx_hal_uart.o)
 .text.HAL_UART_DMAStop
                0x0000000000000000       0x8a platform/libplatform_bl2.a(stm32l5xx_hal_uart.o)
 .text.HAL_UART_Abort
                0x0000000000000000       0xbc platform/libplatform_bl2.a(stm32l5xx_hal_uart.o)
 .text.HAL_UART_AbortTransmit
                0x0000000000000000       0x68 platform/libplatform_bl2.a(stm32l5xx_hal_uart.o)
 .text.HAL_UART_AbortReceive
                0x0000000000000000       0x76 platform/libplatform_bl2.a(stm32l5xx_hal_uart.o)
 .text.HAL_UART_TxCpltCallback
                0x0000000000000000        0x2 platform/libplatform_bl2.a(stm32l5xx_hal_uart.o)
 .text.UART_DMATransmitCplt
                0x0000000000000000       0x2e platform/libplatform_bl2.a(stm32l5xx_hal_uart.o)
 .text.HAL_UART_TxHalfCpltCallback
                0x0000000000000000        0x2 platform/libplatform_bl2.a(stm32l5xx_hal_uart.o)
 .text.UART_DMATxHalfCplt
                0x0000000000000000        0xa platform/libplatform_bl2.a(stm32l5xx_hal_uart.o)
 .text.HAL_UART_RxHalfCpltCallback
                0x0000000000000000        0x2 platform/libplatform_bl2.a(stm32l5xx_hal_uart.o)
 .text.UART_DMAError
                0x0000000000000000       0x5a platform/libplatform_bl2.a(stm32l5xx_hal_uart.o)
 .text.UART_DMAAbortOnError
                0x0000000000000000       0x14 platform/libplatform_bl2.a(stm32l5xx_hal_uart.o)
 .text.HAL_UART_AbortCpltCallback
                0x0000000000000000        0x2 platform/libplatform_bl2.a(stm32l5xx_hal_uart.o)
 .text.HAL_UART_Abort_IT
                0x0000000000000000      0x104 platform/libplatform_bl2.a(stm32l5xx_hal_uart.o)
 .text.UART_DMARxAbortCallback
                0x0000000000000000       0x3e platform/libplatform_bl2.a(stm32l5xx_hal_uart.o)
 .text.UART_DMATxAbortCallback
                0x0000000000000000       0x48 platform/libplatform_bl2.a(stm32l5xx_hal_uart.o)
 .text.HAL_UART_AbortTransmitCpltCallback
                0x0000000000000000        0x2 platform/libplatform_bl2.a(stm32l5xx_hal_uart.o)
 .text.HAL_UART_AbortTransmit_IT
                0x0000000000000000       0x74 platform/libplatform_bl2.a(stm32l5xx_hal_uart.o)
 .text.UART_DMATxOnlyAbortCallback
                0x0000000000000000       0x28 platform/libplatform_bl2.a(stm32l5xx_hal_uart.o)
 .text.HAL_UART_AbortReceiveCpltCallback
                0x0000000000000000        0x2 platform/libplatform_bl2.a(stm32l5xx_hal_uart.o)
 .text.HAL_UART_AbortReceive_IT
                0x0000000000000000       0x8c platform/libplatform_bl2.a(stm32l5xx_hal_uart.o)
 .text.UART_DMARxOnlyAbortCallback
                0x0000000000000000       0x26 platform/libplatform_bl2.a(stm32l5xx_hal_uart.o)
 .text.HAL_UART_IRQHandler
                0x0000000000000000      0x278 platform/libplatform_bl2.a(stm32l5xx_hal_uart.o)
 .text.UART_DMARxHalfCplt
                0x0000000000000000       0x1c platform/libplatform_bl2.a(stm32l5xx_hal_uart.o)
 .text.UART_DMAReceiveCplt
                0x0000000000000000       0x58 platform/libplatform_bl2.a(stm32l5xx_hal_uart.o)
 .text.HAL_UART_ReceiverTimeout_Config
                0x0000000000000000       0x18 platform/libplatform_bl2.a(stm32l5xx_hal_uart.o)
 .text.HAL_UART_EnableReceiverTimeout
                0x0000000000000000       0x40 platform/libplatform_bl2.a(stm32l5xx_hal_uart.o)
 .text.HAL_UART_DisableReceiverTimeout
                0x0000000000000000       0x40 platform/libplatform_bl2.a(stm32l5xx_hal_uart.o)
 .text.HAL_MultiProcessor_EnterMuteMode
                0x0000000000000000        0xc platform/libplatform_bl2.a(stm32l5xx_hal_uart.o)
 .text.HAL_HalfDuplex_EnableTransmitter
                0x0000000000000000       0x34 platform/libplatform_bl2.a(stm32l5xx_hal_uart.o)
 .text.HAL_HalfDuplex_EnableReceiver
                0x0000000000000000       0x34 platform/libplatform_bl2.a(stm32l5xx_hal_uart.o)
 .text.HAL_LIN_SendBreak
                0x0000000000000000       0x2c platform/libplatform_bl2.a(stm32l5xx_hal_uart.o)
 .text.HAL_UART_GetState
                0x0000000000000000        0xc platform/libplatform_bl2.a(stm32l5xx_hal_uart.o)
 .text.HAL_UART_GetError
                0x0000000000000000        0x6 platform/libplatform_bl2.a(stm32l5xx_hal_uart.o)
 .text.HAL_UART_Receive
                0x0000000000000000       0xe4 platform/libplatform_bl2.a(stm32l5xx_hal_uart.o)
 .text.HAL_HalfDuplex_Init
                0x0000000000000000       0x68 platform/libplatform_bl2.a(stm32l5xx_hal_uart.o)
 .text.HAL_LIN_Init
                0x0000000000000000       0x84 platform/libplatform_bl2.a(stm32l5xx_hal_uart.o)
 .text.HAL_MultiProcessor_Init
                0x0000000000000000       0x82 platform/libplatform_bl2.a(stm32l5xx_hal_uart.o)
 .text.HAL_MultiProcessor_EnableMuteMode
                0x0000000000000000       0x2c platform/libplatform_bl2.a(stm32l5xx_hal_uart.o)
 .text.HAL_MultiProcessor_DisableMuteMode
                0x0000000000000000       0x2c platform/libplatform_bl2.a(stm32l5xx_hal_uart.o)
 .text.UART_Start_Receive_DMA
                0x0000000000000000       0x7c platform/libplatform_bl2.a(stm32l5xx_hal_uart.o)
 .text.HAL_UART_Receive_DMA
                0x0000000000000000       0x4c platform/libplatform_bl2.a(stm32l5xx_hal_uart.o)
 .text          0x0000000000000000        0x0 platform/libplatform_bl2.a(stm32l5xx_hal_uart_ex.o)
 .data          0x0000000000000000        0x0 platform/libplatform_bl2.a(stm32l5xx_hal_uart_ex.o)
 .bss           0x0000000000000000        0x0 platform/libplatform_bl2.a(stm32l5xx_hal_uart_ex.o)
 .text.UARTEx_SetNbDataToProcess
                0x0000000000000000       0x44 platform/libplatform_bl2.a(stm32l5xx_hal_uart_ex.o)
 .text.HAL_RS485Ex_Init
                0x0000000000000000       0x7e platform/libplatform_bl2.a(stm32l5xx_hal_uart_ex.o)
 .text.HAL_UARTEx_WakeupCallback
                0x0000000000000000        0x2 platform/libplatform_bl2.a(stm32l5xx_hal_uart_ex.o)
 .text.HAL_UARTEx_RxFifoFullCallback
                0x0000000000000000        0x2 platform/libplatform_bl2.a(stm32l5xx_hal_uart_ex.o)
 .text.HAL_UARTEx_TxFifoEmptyCallback
                0x0000000000000000        0x2 platform/libplatform_bl2.a(stm32l5xx_hal_uart_ex.o)
 .text.HAL_MultiProcessorEx_AddressLength_Set
                0x0000000000000000       0x2c platform/libplatform_bl2.a(stm32l5xx_hal_uart_ex.o)
 .text.HAL_UARTEx_StopModeWakeUpSourceConfig
                0x0000000000000000       0x8c platform/libplatform_bl2.a(stm32l5xx_hal_uart_ex.o)
 .text.HAL_UARTEx_EnableStopMode
                0x0000000000000000       0x20 platform/libplatform_bl2.a(stm32l5xx_hal_uart_ex.o)
 .text.HAL_UARTEx_DisableStopMode
                0x0000000000000000       0x20 platform/libplatform_bl2.a(stm32l5xx_hal_uart_ex.o)
 .text.HAL_UARTEx_EnableFifoMode
                0x0000000000000000       0x40 platform/libplatform_bl2.a(stm32l5xx_hal_uart_ex.o)
 .text.HAL_UARTEx_DisableFifoMode
                0x0000000000000000       0x36 platform/libplatform_bl2.a(stm32l5xx_hal_uart_ex.o)
 .text.HAL_UARTEx_SetTxFifoThreshold
                0x0000000000000000       0x40 platform/libplatform_bl2.a(stm32l5xx_hal_uart_ex.o)
 .text.HAL_UARTEx_SetRxFifoThreshold
                0x0000000000000000       0x40 platform/libplatform_bl2.a(stm32l5xx_hal_uart_ex.o)
 .text.HAL_UARTEx_ReceiveToIdle
                0x0000000000000000      0x13a platform/libplatform_bl2.a(stm32l5xx_hal_uart_ex.o)
 .text.HAL_UARTEx_ReceiveToIdle_IT
                0x0000000000000000       0x48 platform/libplatform_bl2.a(stm32l5xx_hal_uart_ex.o)
 .text.HAL_UARTEx_ReceiveToIdle_DMA
                0x0000000000000000       0x48 platform/libplatform_bl2.a(stm32l5xx_hal_uart_ex.o)
 .rodata.denominator.0
                0x0000000000000000        0x8 platform/libplatform_bl2.a(stm32l5xx_hal_uart_ex.o)
 .rodata.numerator.1
                0x0000000000000000        0x8 platform/libplatform_bl2.a(stm32l5xx_hal_uart_ex.o)
 .debug_info    0x0000000000000000     0x1057 platform/libplatform_bl2.a(stm32l5xx_hal_uart_ex.o)
 .debug_abbrev  0x0000000000000000      0x30b platform/libplatform_bl2.a(stm32l5xx_hal_uart_ex.o)
 .debug_loc     0x0000000000000000      0x932 platform/libplatform_bl2.a(stm32l5xx_hal_uart_ex.o)
 .debug_aranges
                0x0000000000000000       0x98 platform/libplatform_bl2.a(stm32l5xx_hal_uart_ex.o)
 .debug_ranges  0x0000000000000000       0x88 platform/libplatform_bl2.a(stm32l5xx_hal_uart_ex.o)
 .debug_line    0x0000000000000000      0xbfb platform/libplatform_bl2.a(stm32l5xx_hal_uart_ex.o)
 .debug_str     0x0000000000000000      0xb8c platform/libplatform_bl2.a(stm32l5xx_hal_uart_ex.o)
 .comment       0x0000000000000000       0x21 platform/libplatform_bl2.a(stm32l5xx_hal_uart_ex.o)
 .debug_frame   0x0000000000000000      0x198 platform/libplatform_bl2.a(stm32l5xx_hal_uart_ex.o)
 .ARM.attributes
                0x0000000000000000       0x34 platform/libplatform_bl2.a(stm32l5xx_hal_uart_ex.o)
 .text          0x0000000000000000        0x0 platform/libplatform_bl2.a(stm32l5xx_hal_rng.o)
 .data          0x0000000000000000        0x0 platform/libplatform_bl2.a(stm32l5xx_hal_rng.o)
 .bss           0x0000000000000000        0x0 platform/libplatform_bl2.a(stm32l5xx_hal_rng.o)
 .text.HAL_RNG_GenerateRandomNumber_IT
                0x0000000000000000       0x32 platform/libplatform_bl2.a(stm32l5xx_hal_rng.o)
 .text.HAL_RNG_ReadLastRandomNumber
                0x0000000000000000        0x4 platform/libplatform_bl2.a(stm32l5xx_hal_rng.o)
 .text.HAL_RNG_ReadyDataCallback
                0x0000000000000000        0x2 platform/libplatform_bl2.a(stm32l5xx_hal_rng.o)
 .text.HAL_RNG_IRQHandler
                0x0000000000000000       0x6e platform/libplatform_bl2.a(stm32l5xx_hal_rng.o)
 .text.HAL_RNG_GetState
                0x0000000000000000        0x4 platform/libplatform_bl2.a(stm32l5xx_hal_rng.o)
 .text.HAL_RNG_GetError
                0x0000000000000000        0x4 platform/libplatform_bl2.a(stm32l5xx_hal_rng.o)
 .text          0x0000000000000000        0x0 platform/libplatform_bl2.a(stm32l5xx_hal_dma.o)
 .data          0x0000000000000000        0x0 platform/libplatform_bl2.a(stm32l5xx_hal_dma.o)
 .bss           0x0000000000000000        0x0 platform/libplatform_bl2.a(stm32l5xx_hal_dma.o)
 .text.DMA_SetConfig
                0x0000000000000000       0x34 platform/libplatform_bl2.a(stm32l5xx_hal_dma.o)
 .text.DMA_CalcDMAMUXChannelBaseAndMask
                0x0000000000000000       0x48 platform/libplatform_bl2.a(stm32l5xx_hal_dma.o)
 .text.HAL_DMA_Init
                0x0000000000000000       0xdc platform/libplatform_bl2.a(stm32l5xx_hal_dma.o)
 .text.HAL_DMA_DeInit
                0x0000000000000000       0xac platform/libplatform_bl2.a(stm32l5xx_hal_dma.o)
 .text.HAL_DMA_Start
                0x0000000000000000       0x46 platform/libplatform_bl2.a(stm32l5xx_hal_dma.o)
 .text.HAL_DMA_Start_IT
                0x0000000000000000       0x80 platform/libplatform_bl2.a(stm32l5xx_hal_dma.o)
 .text.HAL_DMA_Abort
                0x0000000000000000       0x64 platform/libplatform_bl2.a(stm32l5xx_hal_dma.o)
 .text.HAL_DMA_Abort_IT
                0x0000000000000000       0x6a platform/libplatform_bl2.a(stm32l5xx_hal_dma.o)
 .text.HAL_DMA_PollForTransfer
                0x0000000000000000       0xfc platform/libplatform_bl2.a(stm32l5xx_hal_dma.o)
 .text.HAL_DMA_IRQHandler
                0x0000000000000000       0xc2 platform/libplatform_bl2.a(stm32l5xx_hal_dma.o)
 .text.HAL_DMA_RegisterCallback
                0x0000000000000000       0x4c platform/libplatform_bl2.a(stm32l5xx_hal_dma.o)
 .text.HAL_DMA_UnRegisterCallback
                0x0000000000000000       0x60 platform/libplatform_bl2.a(stm32l5xx_hal_dma.o)
 .text.HAL_DMA_GetState
                0x0000000000000000        0x6 platform/libplatform_bl2.a(stm32l5xx_hal_dma.o)
 .text.HAL_DMA_GetError
                0x0000000000000000        0x4 platform/libplatform_bl2.a(stm32l5xx_hal_dma.o)
 .text.HAL_DMA_ConfigChannelAttributes
                0x0000000000000000       0x92 platform/libplatform_bl2.a(stm32l5xx_hal_dma.o)
 .text.HAL_DMA_GetConfigChannelAttributes
                0x0000000000000000       0x4a platform/libplatform_bl2.a(stm32l5xx_hal_dma.o)
 .debug_info    0x0000000000000000      0xb76 platform/libplatform_bl2.a(stm32l5xx_hal_dma.o)
 .debug_abbrev  0x0000000000000000      0x2bb platform/libplatform_bl2.a(stm32l5xx_hal_dma.o)
 .debug_loc     0x0000000000000000      0x935 platform/libplatform_bl2.a(stm32l5xx_hal_dma.o)
 .debug_aranges
                0x0000000000000000       0x98 platform/libplatform_bl2.a(stm32l5xx_hal_dma.o)
 .debug_ranges  0x0000000000000000       0xa0 platform/libplatform_bl2.a(stm32l5xx_hal_dma.o)
 .debug_line    0x0000000000000000      0xeae platform/libplatform_bl2.a(stm32l5xx_hal_dma.o)
 .debug_str     0x0000000000000000      0x8c1 platform/libplatform_bl2.a(stm32l5xx_hal_dma.o)
 .comment       0x0000000000000000       0x21 platform/libplatform_bl2.a(stm32l5xx_hal_dma.o)
 .debug_frame   0x0000000000000000      0x1ac platform/libplatform_bl2.a(stm32l5xx_hal_dma.o)
 .ARM.attributes
                0x0000000000000000       0x34 platform/libplatform_bl2.a(stm32l5xx_hal_dma.o)
 .text          0x0000000000000000        0x0 bl2/mbedcrypto/library/libmbedcrypto.a(memory_buffer_alloc.o)
 .data          0x0000000000000000        0x0 bl2/mbedcrypto/library/libmbedcrypto.a(memory_buffer_alloc.o)
 .bss           0x0000000000000000        0x0 bl2/mbedcrypto/library/libmbedcrypto.a(memory_buffer_alloc.o)
 .text.mbedtls_memory_buffer_set_verify
                0x0000000000000000        0xc bl2/mbedcrypto/library/libmbedcrypto.a(memory_buffer_alloc.o)
 .text.mbedtls_memory_buffer_alloc_verify
                0x0000000000000000        0x4 bl2/mbedcrypto/library/libmbedcrypto.a(memory_buffer_alloc.o)
 .text.mbedtls_memory_buffer_alloc_free
                0x0000000000000000        0xc bl2/mbedcrypto/library/libmbedcrypto.a(memory_buffer_alloc.o)
 .text          0x0000000000000000        0x0 bl2/mbedcrypto/library/libmbedcrypto.a(platform.o)
 .data          0x0000000000000000        0x0 bl2/mbedcrypto/library/libmbedcrypto.a(platform.o)
 .bss           0x0000000000000000        0x0 bl2/mbedcrypto/library/libmbedcrypto.a(platform.o)
 .text.mbedtls_calloc
                0x0000000000000000        0xc bl2/mbedcrypto/library/libmbedcrypto.a(platform.o)
 .text.mbedtls_free
                0x0000000000000000        0xc bl2/mbedcrypto/library/libmbedcrypto.a(platform.o)
 .text.mbedtls_platform_set_printf
                0x0000000000000000        0xc bl2/mbedcrypto/library/libmbedcrypto.a(platform.o)
 .text.mbedtls_platform_set_exit
                0x0000000000000000        0xc bl2/mbedcrypto/library/libmbedcrypto.a(platform.o)
 .text.mbedtls_platform_setup
                0x0000000000000000        0x4 bl2/mbedcrypto/library/libmbedcrypto.a(platform.o)
 .text.mbedtls_platform_teardown
                0x0000000000000000        0x2 bl2/mbedcrypto/library/libmbedcrypto.a(platform.o)
 .data.mbedtls_printf
                0x0000000000000000        0x4 bl2/mbedcrypto/library/libmbedcrypto.a(platform.o)
 .text          0x0000000000000000        0x0 bl2/mbedcrypto/library/libmbedcrypto.a(platform_util.o)
 .data          0x0000000000000000        0x0 bl2/mbedcrypto/library/libmbedcrypto.a(platform_util.o)
 .bss           0x0000000000000000        0x0 bl2/mbedcrypto/library/libmbedcrypto.a(platform_util.o)
 .text.mbedtls_zeroize_and_free
                0x0000000000000000       0x14 bl2/mbedcrypto/library/libmbedcrypto.a(platform_util.o)
 .text          0x0000000000000000        0x0 bl2/mbedcrypto/library/libmbedcrypto.a(psa_crypto_hash.o)
 .data          0x0000000000000000        0x0 bl2/mbedcrypto/library/libmbedcrypto.a(psa_crypto_hash.o)
 .bss           0x0000000000000000        0x0 bl2/mbedcrypto/library/libmbedcrypto.a(psa_crypto_hash.o)
 .text.mbedtls_psa_hash_clone
                0x0000000000000000       0x30 bl2/mbedcrypto/library/libmbedcrypto.a(psa_crypto_hash.o)
 .text.mbedtls_psa_hash_compute
                0x0000000000000000       0x66 bl2/mbedcrypto/library/libmbedcrypto.a(psa_crypto_hash.o)
 .text          0x0000000000000000        0x0 bl2/mbedcrypto/library/libmbedcrypto.a(sha256.o)
 .data          0x0000000000000000        0x0 bl2/mbedcrypto/library/libmbedcrypto.a(sha256.o)
 .bss           0x0000000000000000        0x0 bl2/mbedcrypto/library/libmbedcrypto.a(sha256.o)
 .text.mbedtls_sha256_clone
                0x0000000000000000        0xa bl2/mbedcrypto/library/libmbedcrypto.a(sha256.o)
 .text.mbedtls_sha256
                0x0000000000000000       0x4c bl2/mbedcrypto/library/libmbedcrypto.a(sha256.o)
 .text          0x0000000000000000        0x0 bl2/mbedcrypto/3rdparty/p256-m/libbl2_p256m.a(p256-m_driver_entrypoints.o)
 .data          0x0000000000000000        0x0 bl2/mbedcrypto/3rdparty/p256-m/libbl2_p256m.a(p256-m_driver_entrypoints.o)
 .bss           0x0000000000000000        0x0 bl2/mbedcrypto/3rdparty/p256-m/libbl2_p256m.a(p256-m_driver_entrypoints.o)
 .text.p256_transparent_import_key
                0x0000000000000000       0x8c bl2/mbedcrypto/3rdparty/p256-m/libbl2_p256m.a(p256-m_driver_entrypoints.o)
 .text.p256_transparent_export_public_key
                0x0000000000000000       0x4e bl2/mbedcrypto/3rdparty/p256-m/libbl2_p256m.a(p256-m_driver_entrypoints.o)
 .text.p256_transparent_generate_key
                0x0000000000000000       0x2a bl2/mbedcrypto/3rdparty/p256-m/libbl2_p256m.a(p256-m_driver_entrypoints.o)
 .text.p256_transparent_key_agreement
                0x0000000000000000       0x38 bl2/mbedcrypto/3rdparty/p256-m/libbl2_p256m.a(p256-m_driver_entrypoints.o)
 .text.p256_transparent_sign_hash
                0x0000000000000000       0x34 bl2/mbedcrypto/3rdparty/p256-m/libbl2_p256m.a(p256-m_driver_entrypoints.o)
 .text          0x0000000000000000        0x0 bl2/mbedcrypto/3rdparty/p256-m/libbl2_p256m.a(p256-m.o)
 .data          0x0000000000000000        0x0 bl2/mbedcrypto/3rdparty/p256-m/libbl2_p256m.a(p256-m.o)
 .bss           0x0000000000000000        0x0 bl2/mbedcrypto/3rdparty/p256-m/libbl2_p256m.a(p256-m.o)
 .text.u256_to_bytes
                0x0000000000000000       0x2c bl2/mbedcrypto/3rdparty/p256-m/libbl2_p256m.a(p256-m.o)
 .text.m256_to_bytes
                0x0000000000000000       0x24 bl2/mbedcrypto/3rdparty/p256-m/libbl2_p256m.a(p256-m.o)
 .text.p256_generate_random
                0x0000000000000000       0x10 bl2/mbedcrypto/3rdparty/p256-m/libbl2_p256m.a(p256-m.o)
 .text.scalar_gen_with_pub
                0x0000000000000000       0x54 bl2/mbedcrypto/3rdparty/p256-m/libbl2_p256m.a(p256-m.o)
 .text.p256_gen_keypair
                0x0000000000000000       0x44 bl2/mbedcrypto/3rdparty/p256-m/libbl2_p256m.a(p256-m.o)
 .text.p256_ecdh_shared_secret
                0x0000000000000000       0x58 bl2/mbedcrypto/3rdparty/p256-m/libbl2_p256m.a(p256-m.o)
 .text.p256_ecdsa_sign
                0x0000000000000000       0xdc bl2/mbedcrypto/3rdparty/p256-m/libbl2_p256m.a(p256-m.o)
 .text.p256_validate_pubkey
                0x0000000000000000       0x1c bl2/mbedcrypto/3rdparty/p256-m/libbl2_p256m.a(p256-m.o)
 .text.p256_validate_privkey
                0x0000000000000000       0x24 bl2/mbedcrypto/3rdparty/p256-m/libbl2_p256m.a(p256-m.o)
 .text.p256_public_from_private
                0x0000000000000000       0x58 bl2/mbedcrypto/3rdparty/p256-m/libbl2_p256m.a(p256-m.o)
 .data          0x0000000000000000        0x0 /home/tmdals010126/zephyr-sdk-0.17.0/arm-zephyr-eabi/bin/../lib/gcc/arm-zephyr-eabi/12.2.0/thumb/v8-m.main/nofp/libgcc.a(cmse_nonsecure_call.o)
 .bss           0x0000000000000000        0x0 /home/tmdals010126/zephyr-sdk-0.17.0/arm-zephyr-eabi/bin/../lib/gcc/arm-zephyr-eabi/12.2.0/thumb/v8-m.main/nofp/libgcc.a(cmse_nonsecure_call.o)
 .text          0x0000000000000000       0xa0 /home/tmdals010126/zephyr-sdk-0.17.0/arm-zephyr-eabi/bin/../lib/gcc/arm-zephyr-eabi/12.2.0/thumb/v8-m.main/nofp/libgcc.a(_aeabi_ldivmod.o)
 .data          0x0000000000000000        0x0 /home/tmdals010126/zephyr-sdk-0.17.0/arm-zephyr-eabi/bin/../lib/gcc/arm-zephyr-eabi/12.2.0/thumb/v8-m.main/nofp/libgcc.a(_aeabi_ldivmod.o)
 .bss           0x0000000000000000        0x0 /home/tmdals010126/zephyr-sdk-0.17.0/arm-zephyr-eabi/bin/../lib/gcc/arm-zephyr-eabi/12.2.0/thumb/v8-m.main/nofp/libgcc.a(_aeabi_ldivmod.o)
 .debug_frame   0x0000000000000000       0x44 /home/tmdals010126/zephyr-sdk-0.17.0/arm-zephyr-eabi/bin/../lib/gcc/arm-zephyr-eabi/12.2.0/thumb/v8-m.main/nofp/libgcc.a(_aeabi_ldivmod.o)
 .ARM.attributes
                0x0000000000000000       0x22 /home/tmdals010126/zephyr-sdk-0.17.0/arm-zephyr-eabi/bin/../lib/gcc/arm-zephyr-eabi/12.2.0/thumb/v8-m.main/nofp/libgcc.a(_aeabi_ldivmod.o)
 .data          0x0000000000000000        0x0 /home/tmdals010126/zephyr-sdk-0.17.0/arm-zephyr-eabi/bin/../lib/gcc/arm-zephyr-eabi/12.2.0/thumb/v8-m.main/nofp/libgcc.a(_aeabi_uldivmod.o)
 .bss           0x0000000000000000        0x0 /home/tmdals010126/zephyr-sdk-0.17.0/arm-zephyr-eabi/bin/../lib/gcc/arm-zephyr-eabi/12.2.0/thumb/v8-m.main/nofp/libgcc.a(_aeabi_uldivmod.o)
 .data          0x0000000000000000        0x0 /home/tmdals010126/zephyr-sdk-0.17.0/arm-zephyr-eabi/bin/../lib/gcc/arm-zephyr-eabi/12.2.0/thumb/v8-m.main/nofp/libgcc.a(_udivmoddi4.o)
 .bss           0x0000000000000000        0x0 /home/tmdals010126/zephyr-sdk-0.17.0/arm-zephyr-eabi/bin/../lib/gcc/arm-zephyr-eabi/12.2.0/thumb/v8-m.main/nofp/libgcc.a(_udivmoddi4.o)
 .ARM.extab     0x0000000000000000        0x0 /home/tmdals010126/zephyr-sdk-0.17.0/arm-zephyr-eabi/bin/../lib/gcc/arm-zephyr-eabi/12.2.0/thumb/v8-m.main/nofp/libgcc.a(_udivmoddi4.o)
 .data          0x0000000000000000        0x0 /home/tmdals010126/zephyr-sdk-0.17.0/arm-zephyr-eabi/bin/../lib/gcc/arm-zephyr-eabi/12.2.0/thumb/v8-m.main/nofp/libgcc.a(_dvmd_tls.o)
 .bss           0x0000000000000000        0x0 /home/tmdals010126/zephyr-sdk-0.17.0/arm-zephyr-eabi/bin/../lib/gcc/arm-zephyr-eabi/12.2.0/thumb/v8-m.main/nofp/libgcc.a(_dvmd_tls.o)
 .text          0x0000000000000000        0x0 /home/tmdals010126/zephyr-sdk-0.17.0/arm-zephyr-eabi/bin/../lib/gcc/arm-zephyr-eabi/12.2.0/../../../../arm-zephyr-eabi/lib/thumb/v8-m.main/nofp/libc_nano.a(lib_a-calloc.o)
 .data          0x0000000000000000        0x0 /home/tmdals010126/zephyr-sdk-0.17.0/arm-zephyr-eabi/bin/../lib/gcc/arm-zephyr-eabi/12.2.0/../../../../arm-zephyr-eabi/lib/thumb/v8-m.main/nofp/libc_nano.a(lib_a-calloc.o)
 .bss           0x0000000000000000        0x0 /home/tmdals010126/zephyr-sdk-0.17.0/arm-zephyr-eabi/bin/../lib/gcc/arm-zephyr-eabi/12.2.0/../../../../arm-zephyr-eabi/lib/thumb/v8-m.main/nofp/libc_nano.a(lib_a-calloc.o)
 .text          0x0000000000000000        0x0 /home/tmdals010126/zephyr-sdk-0.17.0/arm-zephyr-eabi/bin/../lib/gcc/arm-zephyr-eabi/12.2.0/../../../../arm-zephyr-eabi/lib/thumb/v8-m.main/nofp/libc_nano.a(lib_a-exit.o)
 .data          0x0000000000000000        0x0 /home/tmdals010126/zephyr-sdk-0.17.0/arm-zephyr-eabi/bin/../lib/gcc/arm-zephyr-eabi/12.2.0/../../../../arm-zephyr-eabi/lib/thumb/v8-m.main/nofp/libc_nano.a(lib_a-exit.o)
 .bss           0x0000000000000000        0x0 /home/tmdals010126/zephyr-sdk-0.17.0/arm-zephyr-eabi/bin/../lib/gcc/arm-zephyr-eabi/12.2.0/../../../../arm-zephyr-eabi/lib/thumb/v8-m.main/nofp/libc_nano.a(lib_a-exit.o)
 .text          0x0000000000000000        0x0 /home/tmdals010126/zephyr-sdk-0.17.0/arm-zephyr-eabi/bin/../lib/gcc/arm-zephyr-eabi/12.2.0/../../../../arm-zephyr-eabi/lib/thumb/v8-m.main/nofp/libc_nano.a(lib_a-impure.o)
 .data          0x0000000000000000        0x0 /home/tmdals010126/zephyr-sdk-0.17.0/arm-zephyr-eabi/bin/../lib/gcc/arm-zephyr-eabi/12.2.0/../../../../arm-zephyr-eabi/lib/thumb/v8-m.main/nofp/libc_nano.a(lib_a-impure.o)
 .bss           0x0000000000000000        0x0 /home/tmdals010126/zephyr-sdk-0.17.0/arm-zephyr-eabi/bin/../lib/gcc/arm-zephyr-eabi/12.2.0/../../../../arm-zephyr-eabi/lib/thumb/v8-m.main/nofp/libc_nano.a(lib_a-impure.o)
 .text          0x0000000000000000        0x0 /home/tmdals010126/zephyr-sdk-0.17.0/arm-zephyr-eabi/bin/../lib/gcc/arm-zephyr-eabi/12.2.0/../../../../arm-zephyr-eabi/lib/thumb/v8-m.main/nofp/libc_nano.a(lib_a-init.o)
 .data          0x0000000000000000        0x0 /home/tmdals010126/zephyr-sdk-0.17.0/arm-zephyr-eabi/bin/../lib/gcc/arm-zephyr-eabi/12.2.0/../../../../arm-zephyr-eabi/lib/thumb/v8-m.main/nofp/libc_nano.a(lib_a-init.o)
 .bss           0x0000000000000000        0x0 /home/tmdals010126/zephyr-sdk-0.17.0/arm-zephyr-eabi/bin/../lib/gcc/arm-zephyr-eabi/12.2.0/../../../../arm-zephyr-eabi/lib/thumb/v8-m.main/nofp/libc_nano.a(lib_a-init.o)
 .text          0x0000000000000000        0x0 /home/tmdals010126/zephyr-sdk-0.17.0/arm-zephyr-eabi/bin/../lib/gcc/arm-zephyr-eabi/12.2.0/../../../../arm-zephyr-eabi/lib/thumb/v8-m.main/nofp/libc_nano.a(lib_a-malloc.o)
 .data          0x0000000000000000        0x0 /home/tmdals010126/zephyr-sdk-0.17.0/arm-zephyr-eabi/bin/../lib/gcc/arm-zephyr-eabi/12.2.0/../../../../arm-zephyr-eabi/lib/thumb/v8-m.main/nofp/libc_nano.a(lib_a-malloc.o)
 .bss           0x0000000000000000        0x0 /home/tmdals010126/zephyr-sdk-0.17.0/arm-zephyr-eabi/bin/../lib/gcc/arm-zephyr-eabi/12.2.0/../../../../arm-zephyr-eabi/lib/thumb/v8-m.main/nofp/libc_nano.a(lib_a-malloc.o)
 .text.malloc   0x0000000000000000       0x10 /home/tmdals010126/zephyr-sdk-0.17.0/arm-zephyr-eabi/bin/../lib/gcc/arm-zephyr-eabi/12.2.0/../../../../arm-zephyr-eabi/lib/thumb/v8-m.main/nofp/libc_nano.a(lib_a-malloc.o)
 .text          0x0000000000000000        0x0 /home/tmdals010126/zephyr-sdk-0.17.0/arm-zephyr-eabi/bin/../lib/gcc/arm-zephyr-eabi/12.2.0/../../../../arm-zephyr-eabi/lib/thumb/v8-m.main/nofp/libc_nano.a(lib_a-memcmp.o)
 .data          0x0000000000000000        0x0 /home/tmdals010126/zephyr-sdk-0.17.0/arm-zephyr-eabi/bin/../lib/gcc/arm-zephyr-eabi/12.2.0/../../../../arm-zephyr-eabi/lib/thumb/v8-m.main/nofp/libc_nano.a(lib_a-memcmp.o)
 .bss           0x0000000000000000        0x0 /home/tmdals010126/zephyr-sdk-0.17.0/arm-zephyr-eabi/bin/../lib/gcc/arm-zephyr-eabi/12.2.0/../../../../arm-zephyr-eabi/lib/thumb/v8-m.main/nofp/libc_nano.a(lib_a-memcmp.o)
 .text          0x0000000000000000        0x0 /home/tmdals010126/zephyr-sdk-0.17.0/arm-zephyr-eabi/bin/../lib/gcc/arm-zephyr-eabi/12.2.0/../../../../arm-zephyr-eabi/lib/thumb/v8-m.main/nofp/libc_nano.a(lib_a-memcpy-stub.o)
 .data          0x0000000000000000        0x0 /home/tmdals010126/zephyr-sdk-0.17.0/arm-zephyr-eabi/bin/../lib/gcc/arm-zephyr-eabi/12.2.0/../../../../arm-zephyr-eabi/lib/thumb/v8-m.main/nofp/libc_nano.a(lib_a-memcpy-stub.o)
 .bss           0x0000000000000000        0x0 /home/tmdals010126/zephyr-sdk-0.17.0/arm-zephyr-eabi/bin/../lib/gcc/arm-zephyr-eabi/12.2.0/../../../../arm-zephyr-eabi/lib/thumb/v8-m.main/nofp/libc_nano.a(lib_a-memcpy-stub.o)
 .text          0x0000000000000000        0x0 /home/tmdals010126/zephyr-sdk-0.17.0/arm-zephyr-eabi/bin/../lib/gcc/arm-zephyr-eabi/12.2.0/../../../../arm-zephyr-eabi/lib/thumb/v8-m.main/nofp/libc_nano.a(lib_a-memset.o)
 .data          0x0000000000000000        0x0 /home/tmdals010126/zephyr-sdk-0.17.0/arm-zephyr-eabi/bin/../lib/gcc/arm-zephyr-eabi/12.2.0/../../../../arm-zephyr-eabi/lib/thumb/v8-m.main/nofp/libc_nano.a(lib_a-memset.o)
 .bss           0x0000000000000000        0x0 /home/tmdals010126/zephyr-sdk-0.17.0/arm-zephyr-eabi/bin/../lib/gcc/arm-zephyr-eabi/12.2.0/../../../../arm-zephyr-eabi/lib/thumb/v8-m.main/nofp/libc_nano.a(lib_a-memset.o)
 .text          0x0000000000000000        0x0 /home/tmdals010126/zephyr-sdk-0.17.0/arm-zephyr-eabi/bin/../lib/gcc/arm-zephyr-eabi/12.2.0/../../../../arm-zephyr-eabi/lib/thumb/v8-m.main/nofp/libc_nano.a(lib_a-nano-callocr.o)
 .data          0x0000000000000000        0x0 /home/tmdals010126/zephyr-sdk-0.17.0/arm-zephyr-eabi/bin/../lib/gcc/arm-zephyr-eabi/12.2.0/../../../../arm-zephyr-eabi/lib/thumb/v8-m.main/nofp/libc_nano.a(lib_a-nano-callocr.o)
 .bss           0x0000000000000000        0x0 /home/tmdals010126/zephyr-sdk-0.17.0/arm-zephyr-eabi/bin/../lib/gcc/arm-zephyr-eabi/12.2.0/../../../../arm-zephyr-eabi/lib/thumb/v8-m.main/nofp/libc_nano.a(lib_a-nano-callocr.o)
 .text          0x0000000000000000        0x0 /home/tmdals010126/zephyr-sdk-0.17.0/arm-zephyr-eabi/bin/../lib/gcc/arm-zephyr-eabi/12.2.0/../../../../arm-zephyr-eabi/lib/thumb/v8-m.main/nofp/libc_nano.a(lib_a-nano-freer.o)
 .data          0x0000000000000000        0x0 /home/tmdals010126/zephyr-sdk-0.17.0/arm-zephyr-eabi/bin/../lib/gcc/arm-zephyr-eabi/12.2.0/../../../../arm-zephyr-eabi/lib/thumb/v8-m.main/nofp/libc_nano.a(lib_a-nano-freer.o)
 .bss           0x0000000000000000        0x0 /home/tmdals010126/zephyr-sdk-0.17.0/arm-zephyr-eabi/bin/../lib/gcc/arm-zephyr-eabi/12.2.0/../../../../arm-zephyr-eabi/lib/thumb/v8-m.main/nofp/libc_nano.a(lib_a-nano-freer.o)
 .text          0x0000000000000000        0x0 /home/tmdals010126/zephyr-sdk-0.17.0/arm-zephyr-eabi/bin/../lib/gcc/arm-zephyr-eabi/12.2.0/../../../../arm-zephyr-eabi/lib/thumb/v8-m.main/nofp/libc_nano.a(lib_a-nano-mallocr.o)
 .data          0x0000000000000000        0x0 /home/tmdals010126/zephyr-sdk-0.17.0/arm-zephyr-eabi/bin/../lib/gcc/arm-zephyr-eabi/12.2.0/../../../../arm-zephyr-eabi/lib/thumb/v8-m.main/nofp/libc_nano.a(lib_a-nano-mallocr.o)
 .bss           0x0000000000000000        0x0 /home/tmdals010126/zephyr-sdk-0.17.0/arm-zephyr-eabi/bin/../lib/gcc/arm-zephyr-eabi/12.2.0/../../../../arm-zephyr-eabi/lib/thumb/v8-m.main/nofp/libc_nano.a(lib_a-nano-mallocr.o)
 .text          0x0000000000000000        0x0 /home/tmdals010126/zephyr-sdk-0.17.0/arm-zephyr-eabi/bin/../lib/gcc/arm-zephyr-eabi/12.2.0/../../../../arm-zephyr-eabi/lib/thumb/v8-m.main/nofp/libc_nano.a(lib_a-printf.o)
 .data          0x0000000000000000        0x0 /home/tmdals010126/zephyr-sdk-0.17.0/arm-zephyr-eabi/bin/../lib/gcc/arm-zephyr-eabi/12.2.0/../../../../arm-zephyr-eabi/lib/thumb/v8-m.main/nofp/libc_nano.a(lib_a-printf.o)
 .bss           0x0000000000000000        0x0 /home/tmdals010126/zephyr-sdk-0.17.0/arm-zephyr-eabi/bin/../lib/gcc/arm-zephyr-eabi/12.2.0/../../../../arm-zephyr-eabi/lib/thumb/v8-m.main/nofp/libc_nano.a(lib_a-printf.o)
 .text._printf_r
                0x0000000000000000       0x28 /home/tmdals010126/zephyr-sdk-0.17.0/arm-zephyr-eabi/bin/../lib/gcc/arm-zephyr-eabi/12.2.0/../../../../arm-zephyr-eabi/lib/thumb/v8-m.main/nofp/libc_nano.a(lib_a-printf.o)
 .text          0x0000000000000000        0x0 /home/tmdals010126/zephyr-sdk-0.17.0/arm-zephyr-eabi/bin/../lib/gcc/arm-zephyr-eabi/12.2.0/../../../../arm-zephyr-eabi/lib/thumb/v8-m.main/nofp/libc_nano.a(lib_a-sbrkr.o)
 .data          0x0000000000000000        0x0 /home/tmdals010126/zephyr-sdk-0.17.0/arm-zephyr-eabi/bin/../lib/gcc/arm-zephyr-eabi/12.2.0/../../../../arm-zephyr-eabi/lib/thumb/v8-m.main/nofp/libc_nano.a(lib_a-sbrkr.o)
 .bss           0x0000000000000000        0x0 /home/tmdals010126/zephyr-sdk-0.17.0/arm-zephyr-eabi/bin/../lib/gcc/arm-zephyr-eabi/12.2.0/../../../../arm-zephyr-eabi/lib/thumb/v8-m.main/nofp/libc_nano.a(lib_a-sbrkr.o)
 .text          0x0000000000000000        0x0 /home/tmdals010126/zephyr-sdk-0.17.0/arm-zephyr-eabi/bin/../lib/gcc/arm-zephyr-eabi/12.2.0/../../../../arm-zephyr-eabi/lib/thumb/v8-m.main/nofp/libc_nano.a(lib_a-findfp.o)
 .data          0x0000000000000000        0x0 /home/tmdals010126/zephyr-sdk-0.17.0/arm-zephyr-eabi/bin/../lib/gcc/arm-zephyr-eabi/12.2.0/../../../../arm-zephyr-eabi/lib/thumb/v8-m.main/nofp/libc_nano.a(lib_a-findfp.o)
 .bss           0x0000000000000000        0x0 /home/tmdals010126/zephyr-sdk-0.17.0/arm-zephyr-eabi/bin/../lib/gcc/arm-zephyr-eabi/12.2.0/../../../../arm-zephyr-eabi/lib/thumb/v8-m.main/nofp/libc_nano.a(lib_a-findfp.o)
 .text.__fp_lock
                0x0000000000000000       0x18 /home/tmdals010126/zephyr-sdk-0.17.0/arm-zephyr-eabi/bin/../lib/gcc/arm-zephyr-eabi/12.2.0/../../../../arm-zephyr-eabi/lib/thumb/v8-m.main/nofp/libc_nano.a(lib_a-findfp.o)
 .text.__fp_unlock
                0x0000000000000000       0x18 /home/tmdals010126/zephyr-sdk-0.17.0/arm-zephyr-eabi/bin/../lib/gcc/arm-zephyr-eabi/12.2.0/../../../../arm-zephyr-eabi/lib/thumb/v8-m.main/nofp/libc_nano.a(lib_a-findfp.o)
 .text._cleanup
                0x0000000000000000        0xc /home/tmdals010126/zephyr-sdk-0.17.0/arm-zephyr-eabi/bin/../lib/gcc/arm-zephyr-eabi/12.2.0/../../../../arm-zephyr-eabi/lib/thumb/v8-m.main/nofp/libc_nano.a(lib_a-findfp.o)
 .text.__fp_lock_all
                0x0000000000000000       0x1c /home/tmdals010126/zephyr-sdk-0.17.0/arm-zephyr-eabi/bin/../lib/gcc/arm-zephyr-eabi/12.2.0/../../../../arm-zephyr-eabi/lib/thumb/v8-m.main/nofp/libc_nano.a(lib_a-findfp.o)
 .text.__fp_unlock_all
                0x0000000000000000       0x1c /home/tmdals010126/zephyr-sdk-0.17.0/arm-zephyr-eabi/bin/../lib/gcc/arm-zephyr-eabi/12.2.0/../../../../arm-zephyr-eabi/lib/thumb/v8-m.main/nofp/libc_nano.a(lib_a-findfp.o)
 .text          0x0000000000000000        0x0 /home/tmdals010126/zephyr-sdk-0.17.0/arm-zephyr-eabi/bin/../lib/gcc/arm-zephyr-eabi/12.2.0/../../../../arm-zephyr-eabi/lib/thumb/v8-m.main/nofp/libc_nano.a(lib_a-fwalk.o)
 .data          0x0000000000000000        0x0 /home/tmdals010126/zephyr-sdk-0.17.0/arm-zephyr-eabi/bin/../lib/gcc/arm-zephyr-eabi/12.2.0/../../../../arm-zephyr-eabi/lib/thumb/v8-m.main/nofp/libc_nano.a(lib_a-fwalk.o)
 .bss           0x0000000000000000        0x0 /home/tmdals010126/zephyr-sdk-0.17.0/arm-zephyr-eabi/bin/../lib/gcc/arm-zephyr-eabi/12.2.0/../../../../arm-zephyr-eabi/lib/thumb/v8-m.main/nofp/libc_nano.a(lib_a-fwalk.o)
 .text._fwalk   0x0000000000000000       0x3a /home/tmdals010126/zephyr-sdk-0.17.0/arm-zephyr-eabi/bin/../lib/gcc/arm-zephyr-eabi/12.2.0/../../../../arm-zephyr-eabi/lib/thumb/v8-m.main/nofp/libc_nano.a(lib_a-fwalk.o)
 .text          0x0000000000000000        0x0 /home/tmdals010126/zephyr-sdk-0.17.0/arm-zephyr-eabi/bin/../lib/gcc/arm-zephyr-eabi/12.2.0/../../../../arm-zephyr-eabi/lib/thumb/v8-m.main/nofp/libc_nano.a(lib_a-lock.o)
 .data          0x0000000000000000        0x0 /home/tmdals010126/zephyr-sdk-0.17.0/arm-zephyr-eabi/bin/../lib/gcc/arm-zephyr-eabi/12.2.0/../../../../arm-zephyr-eabi/lib/thumb/v8-m.main/nofp/libc_nano.a(lib_a-lock.o)
 .bss           0x0000000000000000        0x0 /home/tmdals010126/zephyr-sdk-0.17.0/arm-zephyr-eabi/bin/../lib/gcc/arm-zephyr-eabi/12.2.0/../../../../arm-zephyr-eabi/lib/thumb/v8-m.main/nofp/libc_nano.a(lib_a-lock.o)
 .text.__retarget_lock_init
                0x0000000000000000        0x2 /home/tmdals010126/zephyr-sdk-0.17.0/arm-zephyr-eabi/bin/../lib/gcc/arm-zephyr-eabi/12.2.0/../../../../arm-zephyr-eabi/lib/thumb/v8-m.main/nofp/libc_nano.a(lib_a-lock.o)
 .text.__retarget_lock_close
                0x0000000000000000        0x2 /home/tmdals010126/zephyr-sdk-0.17.0/arm-zephyr-eabi/bin/../lib/gcc/arm-zephyr-eabi/12.2.0/../../../../arm-zephyr-eabi/lib/thumb/v8-m.main/nofp/libc_nano.a(lib_a-lock.o)
 .text.__retarget_lock_close_recursive
                0x0000000000000000        0x2 /home/tmdals010126/zephyr-sdk-0.17.0/arm-zephyr-eabi/bin/../lib/gcc/arm-zephyr-eabi/12.2.0/../../../../arm-zephyr-eabi/lib/thumb/v8-m.main/nofp/libc_nano.a(lib_a-lock.o)
 .text.__retarget_lock_acquire
                0x0000000000000000        0x2 /home/tmdals010126/zephyr-sdk-0.17.0/arm-zephyr-eabi/bin/../lib/gcc/arm-zephyr-eabi/12.2.0/../../../../arm-zephyr-eabi/lib/thumb/v8-m.main/nofp/libc_nano.a(lib_a-lock.o)
 .text.__retarget_lock_try_acquire
                0x0000000000000000        0x4 /home/tmdals010126/zephyr-sdk-0.17.0/arm-zephyr-eabi/bin/../lib/gcc/arm-zephyr-eabi/12.2.0/../../../../arm-zephyr-eabi/lib/thumb/v8-m.main/nofp/libc_nano.a(lib_a-lock.o)
 .text.__retarget_lock_try_acquire_recursive
                0x0000000000000000        0x4 /home/tmdals010126/zephyr-sdk-0.17.0/arm-zephyr-eabi/bin/../lib/gcc/arm-zephyr-eabi/12.2.0/../../../../arm-zephyr-eabi/lib/thumb/v8-m.main/nofp/libc_nano.a(lib_a-lock.o)
 .text.__retarget_lock_release
                0x0000000000000000        0x2 /home/tmdals010126/zephyr-sdk-0.17.0/arm-zephyr-eabi/bin/../lib/gcc/arm-zephyr-eabi/12.2.0/../../../../arm-zephyr-eabi/lib/thumb/v8-m.main/nofp/libc_nano.a(lib_a-lock.o)
 .bss.__lock___arc4random_mutex
                0x0000000000000000        0x1 /home/tmdals010126/zephyr-sdk-0.17.0/arm-zephyr-eabi/bin/../lib/gcc/arm-zephyr-eabi/12.2.0/../../../../arm-zephyr-eabi/lib/thumb/v8-m.main/nofp/libc_nano.a(lib_a-lock.o)
 .bss.__lock___dd_hash_mutex
                0x0000000000000000        0x1 /home/tmdals010126/zephyr-sdk-0.17.0/arm-zephyr-eabi/bin/../lib/gcc/arm-zephyr-eabi/12.2.0/../../../../arm-zephyr-eabi/lib/thumb/v8-m.main/nofp/libc_nano.a(lib_a-lock.o)
 .bss.__lock___tz_mutex
                0x0000000000000000        0x1 /home/tmdals010126/zephyr-sdk-0.17.0/arm-zephyr-eabi/bin/../lib/gcc/arm-zephyr-eabi/12.2.0/../../../../arm-zephyr-eabi/lib/thumb/v8-m.main/nofp/libc_nano.a(lib_a-lock.o)
 .bss.__lock___env_recursive_mutex
                0x0000000000000000        0x1 /home/tmdals010126/zephyr-sdk-0.17.0/arm-zephyr-eabi/bin/../lib/gcc/arm-zephyr-eabi/12.2.0/../../../../arm-zephyr-eabi/lib/thumb/v8-m.main/nofp/libc_nano.a(lib_a-lock.o)
 .bss.__lock___at_quick_exit_mutex
                0x0000000000000000        0x1 /home/tmdals010126/zephyr-sdk-0.17.0/arm-zephyr-eabi/bin/../lib/gcc/arm-zephyr-eabi/12.2.0/../../../../arm-zephyr-eabi/lib/thumb/v8-m.main/nofp/libc_nano.a(lib_a-lock.o)
 .bss.__lock___atexit_recursive_mutex
                0x0000000000000000        0x1 /home/tmdals010126/zephyr-sdk-0.17.0/arm-zephyr-eabi/bin/../lib/gcc/arm-zephyr-eabi/12.2.0/../../../../arm-zephyr-eabi/lib/thumb/v8-m.main/nofp/libc_nano.a(lib_a-lock.o)
 .text          0x0000000000000000        0x0 /home/tmdals010126/zephyr-sdk-0.17.0/arm-zephyr-eabi/bin/../lib/gcc/arm-zephyr-eabi/12.2.0/../../../../arm-zephyr-eabi/lib/thumb/v8-m.main/nofp/libc_nano.a(lib_a-mlock.o)
 .data          0x0000000000000000        0x0 /home/tmdals010126/zephyr-sdk-0.17.0/arm-zephyr-eabi/bin/../lib/gcc/arm-zephyr-eabi/12.2.0/../../../../arm-zephyr-eabi/lib/thumb/v8-m.main/nofp/libc_nano.a(lib_a-mlock.o)
 .bss           0x0000000000000000        0x0 /home/tmdals010126/zephyr-sdk-0.17.0/arm-zephyr-eabi/bin/../lib/gcc/arm-zephyr-eabi/12.2.0/../../../../arm-zephyr-eabi/lib/thumb/v8-m.main/nofp/libc_nano.a(lib_a-mlock.o)
 .text          0x0000000000000000        0x0 /home/tmdals010126/zephyr-sdk-0.17.0/arm-zephyr-eabi/bin/../lib/gcc/arm-zephyr-eabi/12.2.0/../../../../arm-zephyr-eabi/lib/thumb/v8-m.main/nofp/libc_nano.a(lib_a-nano-vfprintf.o)
 .data          0x0000000000000000        0x0 /home/tmdals010126/zephyr-sdk-0.17.0/arm-zephyr-eabi/bin/../lib/gcc/arm-zephyr-eabi/12.2.0/../../../../arm-zephyr-eabi/lib/thumb/v8-m.main/nofp/libc_nano.a(lib_a-nano-vfprintf.o)
 .bss           0x0000000000000000        0x0 /home/tmdals010126/zephyr-sdk-0.17.0/arm-zephyr-eabi/bin/../lib/gcc/arm-zephyr-eabi/12.2.0/../../../../arm-zephyr-eabi/lib/thumb/v8-m.main/nofp/libc_nano.a(lib_a-nano-vfprintf.o)
 .text.__sprint_r
                0x0000000000000000       0x1a /home/tmdals010126/zephyr-sdk-0.17.0/arm-zephyr-eabi/bin/../lib/gcc/arm-zephyr-eabi/12.2.0/../../../../arm-zephyr-eabi/lib/thumb/v8-m.main/nofp/libc_nano.a(lib_a-nano-vfprintf.o)
 .text.vfprintf
                0x0000000000000000       0x14 /home/tmdals010126/zephyr-sdk-0.17.0/arm-zephyr-eabi/bin/../lib/gcc/arm-zephyr-eabi/12.2.0/../../../../arm-zephyr-eabi/lib/thumb/v8-m.main/nofp/libc_nano.a(lib_a-nano-vfprintf.o)
 .text          0x0000000000000000        0x0 /home/tmdals010126/zephyr-sdk-0.17.0/arm-zephyr-eabi/bin/../lib/gcc/arm-zephyr-eabi/12.2.0/../../../../arm-zephyr-eabi/lib/thumb/v8-m.main/nofp/libc_nano.a(lib_a-nano-vfprintf_i.o)
 .data          0x0000000000000000        0x0 /home/tmdals010126/zephyr-sdk-0.17.0/arm-zephyr-eabi/bin/../lib/gcc/arm-zephyr-eabi/12.2.0/../../../../arm-zephyr-eabi/lib/thumb/v8-m.main/nofp/libc_nano.a(lib_a-nano-vfprintf_i.o)
 .bss           0x0000000000000000        0x0 /home/tmdals010126/zephyr-sdk-0.17.0/arm-zephyr-eabi/bin/../lib/gcc/arm-zephyr-eabi/12.2.0/../../../../arm-zephyr-eabi/lib/thumb/v8-m.main/nofp/libc_nano.a(lib_a-nano-vfprintf_i.o)
 .text          0x0000000000000000        0x0 /home/tmdals010126/zephyr-sdk-0.17.0/arm-zephyr-eabi/bin/../lib/gcc/arm-zephyr-eabi/12.2.0/../../../../arm-zephyr-eabi/lib/thumb/v8-m.main/nofp/libc_nano.a(lib_a-reent.o)
 .data          0x0000000000000000        0x0 /home/tmdals010126/zephyr-sdk-0.17.0/arm-zephyr-eabi/bin/../lib/gcc/arm-zephyr-eabi/12.2.0/../../../../arm-zephyr-eabi/lib/thumb/v8-m.main/nofp/libc_nano.a(lib_a-reent.o)
 .bss           0x0000000000000000        0x0 /home/tmdals010126/zephyr-sdk-0.17.0/arm-zephyr-eabi/bin/../lib/gcc/arm-zephyr-eabi/12.2.0/../../../../arm-zephyr-eabi/lib/thumb/v8-m.main/nofp/libc_nano.a(lib_a-reent.o)
 .text.cleanup_glue
                0x0000000000000000       0x1a /home/tmdals010126/zephyr-sdk-0.17.0/arm-zephyr-eabi/bin/../lib/gcc/arm-zephyr-eabi/12.2.0/../../../../arm-zephyr-eabi/lib/thumb/v8-m.main/nofp/libc_nano.a(lib_a-reent.o)
 .text._reclaim_reent
                0x0000000000000000       0xb8 /home/tmdals010126/zephyr-sdk-0.17.0/arm-zephyr-eabi/bin/../lib/gcc/arm-zephyr-eabi/12.2.0/../../../../arm-zephyr-eabi/lib/thumb/v8-m.main/nofp/libc_nano.a(lib_a-reent.o)
 .text          0x0000000000000000        0x0 /home/tmdals010126/zephyr-sdk-0.17.0/arm-zephyr-eabi/bin/../lib/gcc/arm-zephyr-eabi/12.2.0/../../../../arm-zephyr-eabi/lib/thumb/v8-m.main/nofp/libc_nano.a(lib_a-stdio.o)
 .data          0x0000000000000000        0x0 /home/tmdals010126/zephyr-sdk-0.17.0/arm-zephyr-eabi/bin/../lib/gcc/arm-zephyr-eabi/12.2.0/../../../../arm-zephyr-eabi/lib/thumb/v8-m.main/nofp/libc_nano.a(lib_a-stdio.o)
 .bss           0x0000000000000000        0x0 /home/tmdals010126/zephyr-sdk-0.17.0/arm-zephyr-eabi/bin/../lib/gcc/arm-zephyr-eabi/12.2.0/../../../../arm-zephyr-eabi/lib/thumb/v8-m.main/nofp/libc_nano.a(lib_a-stdio.o)
 .text.__seofread
                0x0000000000000000        0x4 /home/tmdals010126/zephyr-sdk-0.17.0/arm-zephyr-eabi/bin/../lib/gcc/arm-zephyr-eabi/12.2.0/../../../../arm-zephyr-eabi/lib/thumb/v8-m.main/nofp/libc_nano.a(lib_a-stdio.o)
 .text          0x0000000000000000        0x0 /home/tmdals010126/zephyr-sdk-0.17.0/arm-zephyr-eabi/bin/../lib/gcc/arm-zephyr-eabi/12.2.0/../../../../arm-zephyr-eabi/lib/thumb/v8-m.main/nofp/libc_nano.a(lib_a-wbuf.o)
 .data          0x0000000000000000        0x0 /home/tmdals010126/zephyr-sdk-0.17.0/arm-zephyr-eabi/bin/../lib/gcc/arm-zephyr-eabi/12.2.0/../../../../arm-zephyr-eabi/lib/thumb/v8-m.main/nofp/libc_nano.a(lib_a-wbuf.o)
 .bss           0x0000000000000000        0x0 /home/tmdals010126/zephyr-sdk-0.17.0/arm-zephyr-eabi/bin/../lib/gcc/arm-zephyr-eabi/12.2.0/../../../../arm-zephyr-eabi/lib/thumb/v8-m.main/nofp/libc_nano.a(lib_a-wbuf.o)
 .text.__swbuf  0x0000000000000000       0x10 /home/tmdals010126/zephyr-sdk-0.17.0/arm-zephyr-eabi/bin/../lib/gcc/arm-zephyr-eabi/12.2.0/../../../../arm-zephyr-eabi/lib/thumb/v8-m.main/nofp/libc_nano.a(lib_a-wbuf.o)
 .text          0x0000000000000000        0x0 /home/tmdals010126/zephyr-sdk-0.17.0/arm-zephyr-eabi/bin/../lib/gcc/arm-zephyr-eabi/12.2.0/../../../../arm-zephyr-eabi/lib/thumb/v8-m.main/nofp/libc_nano.a(lib_a-writer.o)
 .data          0x0000000000000000        0x0 /home/tmdals010126/zephyr-sdk-0.17.0/arm-zephyr-eabi/bin/../lib/gcc/arm-zephyr-eabi/12.2.0/../../../../arm-zephyr-eabi/lib/thumb/v8-m.main/nofp/libc_nano.a(lib_a-writer.o)
 .bss           0x0000000000000000        0x0 /home/tmdals010126/zephyr-sdk-0.17.0/arm-zephyr-eabi/bin/../lib/gcc/arm-zephyr-eabi/12.2.0/../../../../arm-zephyr-eabi/lib/thumb/v8-m.main/nofp/libc_nano.a(lib_a-writer.o)
 .text          0x0000000000000000        0x0 /home/tmdals010126/zephyr-sdk-0.17.0/arm-zephyr-eabi/bin/../lib/gcc/arm-zephyr-eabi/12.2.0/../../../../arm-zephyr-eabi/lib/thumb/v8-m.main/nofp/libc_nano.a(lib_a-wsetup.o)
 .data          0x0000000000000000        0x0 /home/tmdals010126/zephyr-sdk-0.17.0/arm-zephyr-eabi/bin/../lib/gcc/arm-zephyr-eabi/12.2.0/../../../../arm-zephyr-eabi/lib/thumb/v8-m.main/nofp/libc_nano.a(lib_a-wsetup.o)
 .bss           0x0000000000000000        0x0 /home/tmdals010126/zephyr-sdk-0.17.0/arm-zephyr-eabi/bin/../lib/gcc/arm-zephyr-eabi/12.2.0/../../../../arm-zephyr-eabi/lib/thumb/v8-m.main/nofp/libc_nano.a(lib_a-wsetup.o)
 .text          0x0000000000000000        0x0 /home/tmdals010126/zephyr-sdk-0.17.0/arm-zephyr-eabi/bin/../lib/gcc/arm-zephyr-eabi/12.2.0/../../../../arm-zephyr-eabi/lib/thumb/v8-m.main/nofp/libc_nano.a(lib_a-closer.o)
 .data          0x0000000000000000        0x0 /home/tmdals010126/zephyr-sdk-0.17.0/arm-zephyr-eabi/bin/../lib/gcc/arm-zephyr-eabi/12.2.0/../../../../arm-zephyr-eabi/lib/thumb/v8-m.main/nofp/libc_nano.a(lib_a-closer.o)
 .bss           0x0000000000000000        0x0 /home/tmdals010126/zephyr-sdk-0.17.0/arm-zephyr-eabi/bin/../lib/gcc/arm-zephyr-eabi/12.2.0/../../../../arm-zephyr-eabi/lib/thumb/v8-m.main/nofp/libc_nano.a(lib_a-closer.o)
 .text          0x0000000000000000        0x0 /home/tmdals010126/zephyr-sdk-0.17.0/arm-zephyr-eabi/bin/../lib/gcc/arm-zephyr-eabi/12.2.0/../../../../arm-zephyr-eabi/lib/thumb/v8-m.main/nofp/libc_nano.a(lib_a-fflush.o)
 .data          0x0000000000000000        0x0 /home/tmdals010126/zephyr-sdk-0.17.0/arm-zephyr-eabi/bin/../lib/gcc/arm-zephyr-eabi/12.2.0/../../../../arm-zephyr-eabi/lib/thumb/v8-m.main/nofp/libc_nano.a(lib_a-fflush.o)
 .bss           0x0000000000000000        0x0 /home/tmdals010126/zephyr-sdk-0.17.0/arm-zephyr-eabi/bin/../lib/gcc/arm-zephyr-eabi/12.2.0/../../../../arm-zephyr-eabi/lib/thumb/v8-m.main/nofp/libc_nano.a(lib_a-fflush.o)
 .text.fflush   0x0000000000000000       0x24 /home/tmdals010126/zephyr-sdk-0.17.0/arm-zephyr-eabi/bin/../lib/gcc/arm-zephyr-eabi/12.2.0/../../../../arm-zephyr-eabi/lib/thumb/v8-m.main/nofp/libc_nano.a(lib_a-fflush.o)
 .text          0x0000000000000000        0x0 /home/tmdals010126/zephyr-sdk-0.17.0/arm-zephyr-eabi/bin/../lib/gcc/arm-zephyr-eabi/12.2.0/../../../../arm-zephyr-eabi/lib/thumb/v8-m.main/nofp/libc_nano.a(lib_a-fvwrite.o)
 .data          0x0000000000000000        0x0 /home/tmdals010126/zephyr-sdk-0.17.0/arm-zephyr-eabi/bin/../lib/gcc/arm-zephyr-eabi/12.2.0/../../../../arm-zephyr-eabi/lib/thumb/v8-m.main/nofp/libc_nano.a(lib_a-fvwrite.o)
 .bss           0x0000000000000000        0x0 /home/tmdals010126/zephyr-sdk-0.17.0/arm-zephyr-eabi/bin/../lib/gcc/arm-zephyr-eabi/12.2.0/../../../../arm-zephyr-eabi/lib/thumb/v8-m.main/nofp/libc_nano.a(lib_a-fvwrite.o)
 .text.__sfvwrite_r
                0x0000000000000000      0x2a0 /home/tmdals010126/zephyr-sdk-0.17.0/arm-zephyr-eabi/bin/../lib/gcc/arm-zephyr-eabi/12.2.0/../../../../arm-zephyr-eabi/lib/thumb/v8-m.main/nofp/libc_nano.a(lib_a-fvwrite.o)
 .debug_frame   0x0000000000000000       0x3c /home/tmdals010126/zephyr-sdk-0.17.0/arm-zephyr-eabi/bin/../lib/gcc/arm-zephyr-eabi/12.2.0/../../../../arm-zephyr-eabi/lib/thumb/v8-m.main/nofp/libc_nano.a(lib_a-fvwrite.o)
 .ARM.attributes
                0x0000000000000000       0x32 /home/tmdals010126/zephyr-sdk-0.17.0/arm-zephyr-eabi/bin/../lib/gcc/arm-zephyr-eabi/12.2.0/../../../../arm-zephyr-eabi/lib/thumb/v8-m.main/nofp/libc_nano.a(lib_a-fvwrite.o)
 .text          0x0000000000000000        0x0 /home/tmdals010126/zephyr-sdk-0.17.0/arm-zephyr-eabi/bin/../lib/gcc/arm-zephyr-eabi/12.2.0/../../../../arm-zephyr-eabi/lib/thumb/v8-m.main/nofp/libc_nano.a(lib_a-lseekr.o)
 .data          0x0000000000000000        0x0 /home/tmdals010126/zephyr-sdk-0.17.0/arm-zephyr-eabi/bin/../lib/gcc/arm-zephyr-eabi/12.2.0/../../../../arm-zephyr-eabi/lib/thumb/v8-m.main/nofp/libc_nano.a(lib_a-lseekr.o)
 .bss           0x0000000000000000        0x0 /home/tmdals010126/zephyr-sdk-0.17.0/arm-zephyr-eabi/bin/../lib/gcc/arm-zephyr-eabi/12.2.0/../../../../arm-zephyr-eabi/lib/thumb/v8-m.main/nofp/libc_nano.a(lib_a-lseekr.o)
 .text          0x0000000000000000        0x0 /home/tmdals010126/zephyr-sdk-0.17.0/arm-zephyr-eabi/bin/../lib/gcc/arm-zephyr-eabi/12.2.0/../../../../arm-zephyr-eabi/lib/thumb/v8-m.main/nofp/libc_nano.a(lib_a-makebuf.o)
 .data          0x0000000000000000        0x0 /home/tmdals010126/zephyr-sdk-0.17.0/arm-zephyr-eabi/bin/../lib/gcc/arm-zephyr-eabi/12.2.0/../../../../arm-zephyr-eabi/lib/thumb/v8-m.main/nofp/libc_nano.a(lib_a-makebuf.o)
 .bss           0x0000000000000000        0x0 /home/tmdals010126/zephyr-sdk-0.17.0/arm-zephyr-eabi/bin/../lib/gcc/arm-zephyr-eabi/12.2.0/../../../../arm-zephyr-eabi/lib/thumb/v8-m.main/nofp/libc_nano.a(lib_a-makebuf.o)
 .text          0x0000000000000000        0x0 /home/tmdals010126/zephyr-sdk-0.17.0/arm-zephyr-eabi/bin/../lib/gcc/arm-zephyr-eabi/12.2.0/../../../../arm-zephyr-eabi/lib/thumb/v8-m.main/nofp/libc_nano.a(lib_a-memchr-stub.o)
 .data          0x0000000000000000        0x0 /home/tmdals010126/zephyr-sdk-0.17.0/arm-zephyr-eabi/bin/../lib/gcc/arm-zephyr-eabi/12.2.0/../../../../arm-zephyr-eabi/lib/thumb/v8-m.main/nofp/libc_nano.a(lib_a-memchr-stub.o)
 .bss           0x0000000000000000        0x0 /home/tmdals010126/zephyr-sdk-0.17.0/arm-zephyr-eabi/bin/../lib/gcc/arm-zephyr-eabi/12.2.0/../../../../arm-zephyr-eabi/lib/thumb/v8-m.main/nofp/libc_nano.a(lib_a-memchr-stub.o)
 .text          0x0000000000000000        0x0 /home/tmdals010126/zephyr-sdk-0.17.0/arm-zephyr-eabi/bin/../lib/gcc/arm-zephyr-eabi/12.2.0/../../../../arm-zephyr-eabi/lib/thumb/v8-m.main/nofp/libc_nano.a(lib_a-memmove.o)
 .data          0x0000000000000000        0x0 /home/tmdals010126/zephyr-sdk-0.17.0/arm-zephyr-eabi/bin/../lib/gcc/arm-zephyr-eabi/12.2.0/../../../../arm-zephyr-eabi/lib/thumb/v8-m.main/nofp/libc_nano.a(lib_a-memmove.o)
 .bss           0x0000000000000000        0x0 /home/tmdals010126/zephyr-sdk-0.17.0/arm-zephyr-eabi/bin/../lib/gcc/arm-zephyr-eabi/12.2.0/../../../../arm-zephyr-eabi/lib/thumb/v8-m.main/nofp/libc_nano.a(lib_a-memmove.o)
 .text.memmove  0x0000000000000000       0x34 /home/tmdals010126/zephyr-sdk-0.17.0/arm-zephyr-eabi/bin/../lib/gcc/arm-zephyr-eabi/12.2.0/../../../../arm-zephyr-eabi/lib/thumb/v8-m.main/nofp/libc_nano.a(lib_a-memmove.o)
 .debug_frame   0x0000000000000000       0x28 /home/tmdals010126/zephyr-sdk-0.17.0/arm-zephyr-eabi/bin/../lib/gcc/arm-zephyr-eabi/12.2.0/../../../../arm-zephyr-eabi/lib/thumb/v8-m.main/nofp/libc_nano.a(lib_a-memmove.o)
 .ARM.attributes
                0x0000000000000000       0x32 /home/tmdals010126/zephyr-sdk-0.17.0/arm-zephyr-eabi/bin/../lib/gcc/arm-zephyr-eabi/12.2.0/../../../../arm-zephyr-eabi/lib/thumb/v8-m.main/nofp/libc_nano.a(lib_a-memmove.o)
 .text          0x0000000000000000        0x0 /home/tmdals010126/zephyr-sdk-0.17.0/arm-zephyr-eabi/bin/../lib/gcc/arm-zephyr-eabi/12.2.0/../../../../arm-zephyr-eabi/lib/thumb/v8-m.main/nofp/libc_nano.a(lib_a-nano-reallocr.o)
 .data          0x0000000000000000        0x0 /home/tmdals010126/zephyr-sdk-0.17.0/arm-zephyr-eabi/bin/../lib/gcc/arm-zephyr-eabi/12.2.0/../../../../arm-zephyr-eabi/lib/thumb/v8-m.main/nofp/libc_nano.a(lib_a-nano-reallocr.o)
 .bss           0x0000000000000000        0x0 /home/tmdals010126/zephyr-sdk-0.17.0/arm-zephyr-eabi/bin/../lib/gcc/arm-zephyr-eabi/12.2.0/../../../../arm-zephyr-eabi/lib/thumb/v8-m.main/nofp/libc_nano.a(lib_a-nano-reallocr.o)
 .text._realloc_r
                0x0000000000000000       0x4a /home/tmdals010126/zephyr-sdk-0.17.0/arm-zephyr-eabi/bin/../lib/gcc/arm-zephyr-eabi/12.2.0/../../../../arm-zephyr-eabi/lib/thumb/v8-m.main/nofp/libc_nano.a(lib_a-nano-reallocr.o)
 .debug_frame   0x0000000000000000       0x3c /home/tmdals010126/zephyr-sdk-0.17.0/arm-zephyr-eabi/bin/../lib/gcc/arm-zephyr-eabi/12.2.0/../../../../arm-zephyr-eabi/lib/thumb/v8-m.main/nofp/libc_nano.a(lib_a-nano-reallocr.o)
 .ARM.attributes
                0x0000000000000000       0x32 /home/tmdals010126/zephyr-sdk-0.17.0/arm-zephyr-eabi/bin/../lib/gcc/arm-zephyr-eabi/12.2.0/../../../../arm-zephyr-eabi/lib/thumb/v8-m.main/nofp/libc_nano.a(lib_a-nano-reallocr.o)
 .text          0x0000000000000000        0x0 /home/tmdals010126/zephyr-sdk-0.17.0/arm-zephyr-eabi/bin/../lib/gcc/arm-zephyr-eabi/12.2.0/../../../../arm-zephyr-eabi/lib/thumb/v8-m.main/nofp/libc_nano.a(lib_a-readr.o)
 .data          0x0000000000000000        0x0 /home/tmdals010126/zephyr-sdk-0.17.0/arm-zephyr-eabi/bin/../lib/gcc/arm-zephyr-eabi/12.2.0/../../../../arm-zephyr-eabi/lib/thumb/v8-m.main/nofp/libc_nano.a(lib_a-readr.o)
 .bss           0x0000000000000000        0x0 /home/tmdals010126/zephyr-sdk-0.17.0/arm-zephyr-eabi/bin/../lib/gcc/arm-zephyr-eabi/12.2.0/../../../../arm-zephyr-eabi/lib/thumb/v8-m.main/nofp/libc_nano.a(lib_a-readr.o)
 .text          0x0000000000000000        0x0 /home/tmdals010126/zephyr-sdk-0.17.0/arm-zephyr-eabi/bin/../lib/gcc/arm-zephyr-eabi/12.2.0/../../../../arm-zephyr-eabi/lib/thumb/v8-m.main/nofp/libc_nano.a(lib_a-fstatr.o)
 .data          0x0000000000000000        0x0 /home/tmdals010126/zephyr-sdk-0.17.0/arm-zephyr-eabi/bin/../lib/gcc/arm-zephyr-eabi/12.2.0/../../../../arm-zephyr-eabi/lib/thumb/v8-m.main/nofp/libc_nano.a(lib_a-fstatr.o)
 .bss           0x0000000000000000        0x0 /home/tmdals010126/zephyr-sdk-0.17.0/arm-zephyr-eabi/bin/../lib/gcc/arm-zephyr-eabi/12.2.0/../../../../arm-zephyr-eabi/lib/thumb/v8-m.main/nofp/libc_nano.a(lib_a-fstatr.o)
 .text          0x0000000000000000        0x0 /home/tmdals010126/zephyr-sdk-0.17.0/arm-zephyr-eabi/bin/../lib/gcc/arm-zephyr-eabi/12.2.0/../../../../arm-zephyr-eabi/lib/thumb/v8-m.main/nofp/libc_nano.a(lib_a-isattyr.o)
 .data          0x0000000000000000        0x0 /home/tmdals010126/zephyr-sdk-0.17.0/arm-zephyr-eabi/bin/../lib/gcc/arm-zephyr-eabi/12.2.0/../../../../arm-zephyr-eabi/lib/thumb/v8-m.main/nofp/libc_nano.a(lib_a-isattyr.o)
 .bss           0x0000000000000000        0x0 /home/tmdals010126/zephyr-sdk-0.17.0/arm-zephyr-eabi/bin/../lib/gcc/arm-zephyr-eabi/12.2.0/../../../../arm-zephyr-eabi/lib/thumb/v8-m.main/nofp/libc_nano.a(lib_a-isattyr.o)
 .text          0x0000000000000000        0x0 /home/tmdals010126/zephyr-sdk-0.17.0/arm-zephyr-eabi/bin/../lib/gcc/arm-zephyr-eabi/12.2.0/../../../../arm-zephyr-eabi/lib/thumb/v8-m.main/nofp/libc_nano.a(lib_a-nano-msizer.o)
 .data          0x0000000000000000        0x0 /home/tmdals010126/zephyr-sdk-0.17.0/arm-zephyr-eabi/bin/../lib/gcc/arm-zephyr-eabi/12.2.0/../../../../arm-zephyr-eabi/lib/thumb/v8-m.main/nofp/libc_nano.a(lib_a-nano-msizer.o)
 .bss           0x0000000000000000        0x0 /home/tmdals010126/zephyr-sdk-0.17.0/arm-zephyr-eabi/bin/../lib/gcc/arm-zephyr-eabi/12.2.0/../../../../arm-zephyr-eabi/lib/thumb/v8-m.main/nofp/libc_nano.a(lib_a-nano-msizer.o)
 .text._malloc_usable_size_r
                0x0000000000000000       0x10 /home/tmdals010126/zephyr-sdk-0.17.0/arm-zephyr-eabi/bin/../lib/gcc/arm-zephyr-eabi/12.2.0/../../../../arm-zephyr-eabi/lib/thumb/v8-m.main/nofp/libc_nano.a(lib_a-nano-msizer.o)
 .debug_frame   0x0000000000000000       0x20 /home/tmdals010126/zephyr-sdk-0.17.0/arm-zephyr-eabi/bin/../lib/gcc/arm-zephyr-eabi/12.2.0/../../../../arm-zephyr-eabi/lib/thumb/v8-m.main/nofp/libc_nano.a(lib_a-nano-msizer.o)
 .ARM.attributes
                0x0000000000000000       0x32 /home/tmdals010126/zephyr-sdk-0.17.0/arm-zephyr-eabi/bin/../lib/gcc/arm-zephyr-eabi/12.2.0/../../../../arm-zephyr-eabi/lib/thumb/v8-m.main/nofp/libc_nano.a(lib_a-nano-msizer.o)
 .text          0x0000000000000000        0x0 /home/tmdals010126/zephyr-sdk-0.17.0/arm-zephyr-eabi/bin/../lib/gcc/arm-zephyr-eabi/12.2.0/../../../../arm-zephyr-eabi/lib/thumb/v8-m.main/nofp/libnosys.a(sbrk.o)
 .data          0x0000000000000000        0x0 /home/tmdals010126/zephyr-sdk-0.17.0/arm-zephyr-eabi/bin/../lib/gcc/arm-zephyr-eabi/12.2.0/../../../../arm-zephyr-eabi/lib/thumb/v8-m.main/nofp/libnosys.a(sbrk.o)
 .bss           0x0000000000000000        0x0 /home/tmdals010126/zephyr-sdk-0.17.0/arm-zephyr-eabi/bin/../lib/gcc/arm-zephyr-eabi/12.2.0/../../../../arm-zephyr-eabi/lib/thumb/v8-m.main/nofp/libnosys.a(sbrk.o)
 .text          0x0000000000000000        0x0 /home/tmdals010126/zephyr-sdk-0.17.0/arm-zephyr-eabi/bin/../lib/gcc/arm-zephyr-eabi/12.2.0/../../../../arm-zephyr-eabi/lib/thumb/v8-m.main/nofp/libnosys.a(_exit.o)
 .data          0x0000000000000000        0x0 /home/tmdals010126/zephyr-sdk-0.17.0/arm-zephyr-eabi/bin/../lib/gcc/arm-zephyr-eabi/12.2.0/../../../../arm-zephyr-eabi/lib/thumb/v8-m.main/nofp/libnosys.a(_exit.o)
 .bss           0x0000000000000000        0x0 /home/tmdals010126/zephyr-sdk-0.17.0/arm-zephyr-eabi/bin/../lib/gcc/arm-zephyr-eabi/12.2.0/../../../../arm-zephyr-eabi/lib/thumb/v8-m.main/nofp/libnosys.a(_exit.o)
 .text          0x0000000000000000        0x0 /home/tmdals010126/zephyr-sdk-0.17.0/arm-zephyr-eabi/bin/../lib/gcc/arm-zephyr-eabi/12.2.0/thumb/v8-m.main/nofp/crtend.o
 .data          0x0000000000000000        0x0 /home/tmdals010126/zephyr-sdk-0.17.0/arm-zephyr-eabi/bin/../lib/gcc/arm-zephyr-eabi/12.2.0/thumb/v8-m.main/nofp/crtend.o
 .bss           0x0000000000000000        0x0 /home/tmdals010126/zephyr-sdk-0.17.0/arm-zephyr-eabi/bin/../lib/gcc/arm-zephyr-eabi/12.2.0/thumb/v8-m.main/nofp/crtend.o
 .rodata        0x0000000000000000       0x24 /home/tmdals010126/zephyr-sdk-0.17.0/arm-zephyr-eabi/bin/../lib/gcc/arm-zephyr-eabi/12.2.0/thumb/v8-m.main/nofp/crtend.o
 .text          0x0000000000000000        0x0 /home/tmdals010126/zephyr-sdk-0.17.0/arm-zephyr-eabi/bin/../lib/gcc/arm-zephyr-eabi/12.2.0/thumb/v8-m.main/nofp/crtn.o
 .data          0x0000000000000000        0x0 /home/tmdals010126/zephyr-sdk-0.17.0/arm-zephyr-eabi/bin/../lib/gcc/arm-zephyr-eabi/12.2.0/thumb/v8-m.main/nofp/crtn.o
 .bss           0x0000000000000000        0x0 /home/tmdals010126/zephyr-sdk-0.17.0/arm-zephyr-eabi/bin/../lib/gcc/arm-zephyr-eabi/12.2.0/thumb/v8-m.main/nofp/crtn.o

Memory Configuration

Name             Origin             Length             Attributes
FLASH            0x000000000c000000 0x000000000000d800 xr
FLASH_NOHDP      0x000000000c00d800 0x0000000000000800 xr
RAM              0x0000000030030000 0x000000000000fc00 xrw
*default*        0x0000000000000000 0xffffffffffffffff

Linker script and memory map

LOAD /home/tmdals010126/zephyr-sdk-0.17.0/arm-zephyr-eabi/bin/../lib/gcc/arm-zephyr-eabi/12.2.0/thumb/v8-m.main/nofp/crti.o
LOAD /home/tmdals010126/zephyr-sdk-0.17.0/arm-zephyr-eabi/bin/../lib/gcc/arm-zephyr-eabi/12.2.0/thumb/v8-m.main/nofp/crtbegin.o
LOAD /home/tmdals010126/zephyr-sdk-0.17.0/arm-zephyr-eabi/bin/../lib/gcc/arm-zephyr-eabi/12.2.0/../../../../arm-zephyr-eabi/lib/thumb/v8-m.main/nofp/crt0.o
LOAD bl2/CMakeFiles/bl2.dir/src/flash_map.o
LOAD bl2/CMakeFiles/bl2.dir/src/security_cnt.o
LOAD bl2/CMakeFiles/bl2.dir/src/default_flash_map.o
LOAD bl2/CMakeFiles/bl2.dir/src/provisioning.o
LOAD bl2/CMakeFiles/bl2.dir/src/thin_psa_crypto_core.o
LOAD bl2/CMakeFiles/bl2.dir/__/platform/ext/common/syscalls_stub.o
LOAD bl2/CMakeFiles/bl2.dir/ext/mcuboot/bl2_main.o
LOAD bl2/CMakeFiles/bl2.dir/ext/mcuboot/keys.o
LOAD bl2/CMakeFiles/bl2.dir/ext/mcuboot/flash_map_extended.o
LOAD bl2/CMakeFiles/bl2.dir/ext/mcuboot/flash_map_legacy.o
LOAD bl2/CMakeFiles/bl2.dir/__/platform/ext/target/stm/common/hal/Native_Driver/tick.o
LOAD bl2/CMakeFiles/bl2.dir/__/platform/ext/target/stm/common/stm32l5xx/Device/Source/startup_stm32l5xx_bl2.o
LOAD bl2/CMakeFiles/bl2.dir/__/platform/ext/target/stm/common/hal/accelerator/sha1_alt.o
LOAD bl2/CMakeFiles/bl2.dir/__/platform/ext/target/stm/common/hal/accelerator/sha256_alt.o
LOAD bl2/CMakeFiles/bl2.dir/__/platform/ext/target/stm/common/hal/accelerator/stm.o
LOAD bl2/ext/mcuboot/bootutil/libbootutil.a
LOAD platform/libplatform_bl2.a
LOAD bl2/mbedcrypto/library/libmbedcrypto.a
LOAD bl2/mbedcrypto/3rdparty/p256-m/libbl2_p256m.a
LOAD platform/ext/accelerator/libbl2_crypto_hw.a
LOAD bl2/mbedcrypto/library/libmbedcrypto.a
LOAD bl2/mbedcrypto/3rdparty/p256-m/libbl2_p256m.a
LOAD platform/ext/accelerator/libbl2_crypto_hw.a
LOAD bl2/mbedcrypto/3rdparty/everest/libbl2_everest.a
LOAD platform/libplatform_bl2.a
START GROUP
LOAD /home/tmdals010126/zephyr-sdk-0.17.0/arm-zephyr-eabi/bin/../lib/gcc/arm-zephyr-eabi/12.2.0/thumb/v8-m.main/nofp/libgcc.a
LOAD /home/tmdals010126/zephyr-sdk-0.17.0/arm-zephyr-eabi/bin/../lib/gcc/arm-zephyr-eabi/12.2.0/../../../../arm-zephyr-eabi/lib/thumb/v8-m.main/nofp/libc_nano.a
END GROUP
START GROUP
LOAD /home/tmdals010126/zephyr-sdk-0.17.0/arm-zephyr-eabi/bin/../lib/gcc/arm-zephyr-eabi/12.2.0/thumb/v8-m.main/nofp/libgcc.a
LOAD /home/tmdals010126/zephyr-sdk-0.17.0/arm-zephyr-eabi/bin/../lib/gcc/arm-zephyr-eabi/12.2.0/../../../../arm-zephyr-eabi/lib/thumb/v8-m.main/nofp/libc_nano.a
LOAD /home/tmdals010126/zephyr-sdk-0.17.0/arm-zephyr-eabi/bin/../lib/gcc/arm-zephyr-eabi/12.2.0/../../../../arm-zephyr-eabi/lib/thumb/v8-m.main/nofp/libnosys.a
END GROUP
START GROUP
LOAD /home/tmdals010126/zephyr-sdk-0.17.0/arm-zephyr-eabi/bin/../lib/gcc/arm-zephyr-eabi/12.2.0/thumb/v8-m.main/nofp/libgcc.a
LOAD /home/tmdals010126/zephyr-sdk-0.17.0/arm-zephyr-eabi/bin/../lib/gcc/arm-zephyr-eabi/12.2.0/../../../../arm-zephyr-eabi/lib/thumb/v8-m.main/nofp/libc_nano.a
LOAD /home/tmdals010126/zephyr-sdk-0.17.0/arm-zephyr-eabi/bin/../lib/gcc/arm-zephyr-eabi/12.2.0/../../../../arm-zephyr-eabi/lib/thumb/v8-m.main/nofp/libnosys.a
END GROUP
LOAD /home/tmdals010126/zephyr-sdk-0.17.0/arm-zephyr-eabi/bin/../lib/gcc/arm-zephyr-eabi/12.2.0/thumb/v8-m.main/nofp/crtend.o
LOAD /home/tmdals010126/zephyr-sdk-0.17.0/arm-zephyr-eabi/bin/../lib/gcc/arm-zephyr-eabi/12.2.0/thumb/v8-m.main/nofp/crtn.o
                0x0000000000001000                __heap_size__ = 0x1000
                0x0000000000001800                __msp_stack_size__ = 0x1800

.BL2_NoHdp_Code
                0x000000000c00d800       0xe8
 *(.BL2_NoHdp_Data)
 *(.BL2_NoHdp_Code)
 .BL2_NoHdp_Code
                0x000000000c00d800       0x6c platform/libplatform_bl2.a(boot_hal_bl2.o)
                0x000000000c00d800                boot_jump_to_next_image
                0x000000000c00d822                boot_platform_quit
                0x000000000c00d854                boot_clear_ram_area
 .BL2_NoHdp_Code
                0x000000000c00d86c       0x54 platform/libplatform_bl2.a(tfm_low_level_security.o)
                0x000000000c00d86c                TFM_LL_SECU_UpdateRunTimeProtections
 *mpu_armv8m_drv.o(.text* .rodata*)
 *(.BL2_Error_Code)
 .BL2_Error_Code
                0x000000000c00d8c0       0x28 platform/libplatform_bl2.a(boot_hal_bl2.o)
                0x000000000c00d8c0                Error_Handler
                0x000000000c00d8e8                __hdp_end__ = .

.text           0x000000000c000000     0x93e0
 *(.vectors)
 .vectors       0x000000000c000000      0x1f4 bl2/CMakeFiles/bl2.dir/__/platform/ext/target/stm/common/stm32l5xx/Device/Source/startup_stm32l5xx_bl2.o
                0x000000000c000000                __Vectors
                0x000000000c0001f4                __Vectors_End = .
                0x000000000c0001f4                __Vectors_Size = (__Vectors_End - __Vectors)
                0x0000000030035478                __end__ = .
 *(.text*)
 .text          0x000000000c0001f4       0x88 /home/tmdals010126/zephyr-sdk-0.17.0/arm-zephyr-eabi/bin/../lib/gcc/arm-zephyr-eabi/12.2.0/thumb/v8-m.main/nofp/crtbegin.o
 .text          0x000000000c00027c       0x7c /home/tmdals010126/zephyr-sdk-0.17.0/arm-zephyr-eabi/bin/../lib/gcc/arm-zephyr-eabi/12.2.0/../../../../arm-zephyr-eabi/lib/thumb/v8-m.main/nofp/crt0.o
                0x000000000c00027c                _stack_init
                0x000000000c000284                _mainCRTStartup
                0x000000000c000284                _start
 .text.is_range_valid
                0x000000000c0002f8       0x16 bl2/CMakeFiles/bl2.dir/src/flash_map.o
 *fill*         0x000000000c00030e        0x2 
 .text.flash_area_open
                0x000000000c000310       0x38 bl2/CMakeFiles/bl2.dir/src/flash_map.o
                0x000000000c000310                flash_area_open
 .text.flash_area_close
                0x000000000c000348        0x2 bl2/CMakeFiles/bl2.dir/src/flash_map.o
                0x000000000c000348                flash_area_close
 *fill*         0x000000000c00034a        0x2 
 .text.flash_area_read
                0x000000000c00034c      0x100 bl2/CMakeFiles/bl2.dir/src/flash_map.o
                0x000000000c00034c                flash_area_read
 .text.flash_area_write
                0x000000000c00044c      0x1b0 bl2/CMakeFiles/bl2.dir/src/flash_map.o
                0x000000000c00044c                flash_area_write
 .text.flash_area_erase
                0x000000000c0005fc       0x42 bl2/CMakeFiles/bl2.dir/src/flash_map.o
                0x000000000c0005fc                flash_area_erase
 .text.flash_area_align
                0x000000000c00063e        0xc bl2/CMakeFiles/bl2.dir/src/flash_map.o
                0x000000000c00063e                flash_area_align
 *fill*         0x000000000c00064a        0x2 
 .text.boot_nv_security_counter_init
                0x000000000c00064c       0x1c bl2/CMakeFiles/bl2.dir/src/security_cnt.o
                0x000000000c00064c                boot_nv_security_counter_init
 .text.boot_nv_security_counter_get
                0x000000000c000668       0x38 bl2/CMakeFiles/bl2.dir/src/security_cnt.o
                0x000000000c000668                boot_nv_security_counter_get
 .text.boot_nv_security_counter_update
                0x000000000c0006a0       0x28 bl2/CMakeFiles/bl2.dir/src/security_cnt.o
                0x000000000c0006a0                boot_nv_security_counter_update
 .text.tfm_plat_provisioning_check_for_dummy_keys
                0x000000000c0006c8       0x5c bl2/CMakeFiles/bl2.dir/src/provisioning.o
                0x000000000c0006c8                tfm_plat_provisioning_check_for_dummy_keys
 .text.tfm_plat_provisioning_is_required
                0x000000000c000724       0x1e bl2/CMakeFiles/bl2.dir/src/provisioning.o
                0x000000000c000724                tfm_plat_provisioning_is_required
 *fill*         0x000000000c000742        0x2 
 .text.provision_assembly_and_test
                0x000000000c000744       0x30 bl2/CMakeFiles/bl2.dir/src/provisioning.o
                0x000000000c000744                provision_assembly_and_test
 .text.tfm_plat_provisioning_perform
                0x000000000c000774       0x60 bl2/CMakeFiles/bl2.dir/src/provisioning.o
                0x000000000c000774                tfm_plat_provisioning_perform
 .text.psa_crypto_init
                0x000000000c0007d4        0x4 bl2/CMakeFiles/bl2.dir/src/thin_psa_crypto_core.o
                0x000000000c0007d4                psa_crypto_init
 .text.psa_hash_abort
                0x000000000c0007d8       0x1e bl2/CMakeFiles/bl2.dir/src/thin_psa_crypto_core.o
                0x000000000c0007d8                psa_hash_abort
 .text.psa_hash_setup
                0x000000000c0007f6       0x22 bl2/CMakeFiles/bl2.dir/src/thin_psa_crypto_core.o
                0x000000000c0007f6                psa_hash_setup
 .text.psa_hash_update
                0x000000000c000818       0x18 bl2/CMakeFiles/bl2.dir/src/thin_psa_crypto_core.o
                0x000000000c000818                psa_hash_update
 .text.psa_hash_finish
                0x000000000c000830       0x26 bl2/CMakeFiles/bl2.dir/src/thin_psa_crypto_core.o
                0x000000000c000830                psa_hash_finish
 *fill*         0x000000000c000856        0x2 
 .text.psa_destroy_key
                0x000000000c000858       0x40 bl2/CMakeFiles/bl2.dir/src/thin_psa_crypto_core.o
                0x000000000c000858                psa_destroy_key
 .text.psa_verify_hash
                0x000000000c000898       0x6c bl2/CMakeFiles/bl2.dir/src/thin_psa_crypto_core.o
                0x000000000c000898                psa_verify_hash
 .text.mbedtls_to_psa_error
                0x000000000c000904        0xa bl2/CMakeFiles/bl2.dir/src/thin_psa_crypto_core.o
                0x000000000c000904                mbedtls_to_psa_error
 .text.psa_driver_wrapper_export_public_key
                0x000000000c00090e       0x12 bl2/CMakeFiles/bl2.dir/src/thin_psa_crypto_core.o
                0x000000000c00090e                psa_driver_wrapper_export_public_key
 .text._close   0x000000000c000920        0x2 bl2/CMakeFiles/bl2.dir/__/platform/ext/common/syscalls_stub.o
                0x000000000c000920                _close
 .text._fstat   0x000000000c000922        0x2 bl2/CMakeFiles/bl2.dir/__/platform/ext/common/syscalls_stub.o
                0x000000000c000922                _fstat
 .text._isatty  0x000000000c000924        0x2 bl2/CMakeFiles/bl2.dir/__/platform/ext/common/syscalls_stub.o
                0x000000000c000924                _isatty
 .text._lseek   0x000000000c000926        0x2 bl2/CMakeFiles/bl2.dir/__/platform/ext/common/syscalls_stub.o
                0x000000000c000926                _lseek
 .text._read    0x000000000c000928        0x2 bl2/CMakeFiles/bl2.dir/__/platform/ext/common/syscalls_stub.o
                0x000000000c000928                _read
 *fill*         0x000000000c00092a        0x2 
 .text.startup.main
                0x000000000c00092c      0x190 bl2/CMakeFiles/bl2.dir/ext/mcuboot/bl2_main.o
                0x000000000c00092c                main
 .text.flash_device_base
                0x000000000c000abc       0x24 bl2/CMakeFiles/bl2.dir/ext/mcuboot/flash_map_extended.o
                0x000000000c000abc                flash_device_base
 .text.flash_area_id_from_multi_image_slot
                0x000000000c000ae0       0x34 bl2/CMakeFiles/bl2.dir/ext/mcuboot/flash_map_extended.o
                0x000000000c000ae0                flash_area_id_from_multi_image_slot
 .text.flash_area_erased_val
                0x000000000c000b14        0xc bl2/CMakeFiles/bl2.dir/ext/mcuboot/flash_map_extended.o
                0x000000000c000b14                flash_area_erased_val
 .text.flash_area_get_sectors
                0x000000000c000b20       0x8c bl2/CMakeFiles/bl2.dir/ext/mcuboot/flash_map_legacy.o
                0x000000000c000b20                flash_area_get_sectors
 .text.HAL_InitTick
                0x000000000c000bac       0x1c bl2/CMakeFiles/bl2.dir/__/platform/ext/target/stm/common/hal/Native_Driver/tick.o
                0x000000000c000bac                HAL_InitTick
 .text.HAL_GetTick
                0x000000000c000bc8       0x50 bl2/CMakeFiles/bl2.dir/__/platform/ext/target/stm/common/hal/Native_Driver/tick.o
                0x000000000c000bc8                HAL_GetTick
 .text.HardFault_Handler
                0x000000000c000c18        0x2 bl2/CMakeFiles/bl2.dir/__/platform/ext/target/stm/common/stm32l5xx/Device/Source/startup_stm32l5xx_bl2.o
                0x000000000c000c18                HardFault_Handler
 .text.MemManage_Handler
                0x000000000c000c1a        0x2 bl2/CMakeFiles/bl2.dir/__/platform/ext/target/stm/common/stm32l5xx/Device/Source/startup_stm32l5xx_bl2.o
                0x000000000c000c1a                MemManage_Handler
 .text.BusFault_Handler
                0x000000000c000c1c        0x2 bl2/CMakeFiles/bl2.dir/__/platform/ext/target/stm/common/stm32l5xx/Device/Source/startup_stm32l5xx_bl2.o
                0x000000000c000c1c                BusFault_Handler
 .text.UsageFault_Handler
                0x000000000c000c1e        0x2 bl2/CMakeFiles/bl2.dir/__/platform/ext/target/stm/common/stm32l5xx/Device/Source/startup_stm32l5xx_bl2.o
                0x000000000c000c1e                UsageFault_Handler
 .text.SecureFault_Handler
                0x000000000c000c20        0x2 bl2/CMakeFiles/bl2.dir/__/platform/ext/target/stm/common/stm32l5xx/Device/Source/startup_stm32l5xx_bl2.o
                0x000000000c000c20                SecureFault_Handler
 .text.SVC_Handler
                0x000000000c000c22        0x2 bl2/CMakeFiles/bl2.dir/__/platform/ext/target/stm/common/stm32l5xx/Device/Source/startup_stm32l5xx_bl2.o
                0x000000000c000c22                SVC_Handler
 .text.DebugMon_Handler
                0x000000000c000c24        0x2 bl2/CMakeFiles/bl2.dir/__/platform/ext/target/stm/common/stm32l5xx/Device/Source/startup_stm32l5xx_bl2.o
                0x000000000c000c24                DebugMon_Handler
 .text.PendSV_Handler
                0x000000000c000c26        0x2 bl2/CMakeFiles/bl2.dir/__/platform/ext/target/stm/common/stm32l5xx/Device/Source/startup_stm32l5xx_bl2.o
                0x000000000c000c26                PendSV_Handler
 .text.SysTick_Handler
                0x000000000c000c28        0x2 bl2/CMakeFiles/bl2.dir/__/platform/ext/target/stm/common/stm32l5xx/Device/Source/startup_stm32l5xx_bl2.o
                0x000000000c000c28                SysTick_Handler
 .text.WWDG_IRQHandler
                0x000000000c000c2a        0x2 bl2/CMakeFiles/bl2.dir/__/platform/ext/target/stm/common/stm32l5xx/Device/Source/startup_stm32l5xx_bl2.o
                0x000000000c000c2a                WWDG_IRQHandler
 .text.PVD_PVM_IRQHandler
                0x000000000c000c2c        0x2 bl2/CMakeFiles/bl2.dir/__/platform/ext/target/stm/common/stm32l5xx/Device/Source/startup_stm32l5xx_bl2.o
                0x000000000c000c2c                PVD_PVM_IRQHandler
 .text.RTC_IRQHandler
                0x000000000c000c2e        0x2 bl2/CMakeFiles/bl2.dir/__/platform/ext/target/stm/common/stm32l5xx/Device/Source/startup_stm32l5xx_bl2.o
                0x000000000c000c2e                RTC_IRQHandler
 .text.RTC_IRQHandler_S
                0x000000000c000c30        0x2 bl2/CMakeFiles/bl2.dir/__/platform/ext/target/stm/common/stm32l5xx/Device/Source/startup_stm32l5xx_bl2.o
                0x000000000c000c30                RTC_IRQHandler_S
 .text.TAMP_IRQHandler
                0x000000000c000c32        0x2 bl2/CMakeFiles/bl2.dir/__/platform/ext/target/stm/common/stm32l5xx/Device/Source/startup_stm32l5xx_bl2.o
                0x000000000c000c32                TAMP_IRQHandler
 .text.TAMP_IRQHandler_S
                0x000000000c000c34        0x2 bl2/CMakeFiles/bl2.dir/__/platform/ext/target/stm/common/stm32l5xx/Device/Source/startup_stm32l5xx_bl2.o
                0x000000000c000c34                TAMP_IRQHandler_S
 .text.FLASH_IRQHandler
                0x000000000c000c36        0x2 bl2/CMakeFiles/bl2.dir/__/platform/ext/target/stm/common/stm32l5xx/Device/Source/startup_stm32l5xx_bl2.o
                0x000000000c000c36                FLASH_IRQHandler
 .text.FLASH_IRQHandler_S
                0x000000000c000c38        0x2 bl2/CMakeFiles/bl2.dir/__/platform/ext/target/stm/common/stm32l5xx/Device/Source/startup_stm32l5xx_bl2.o
                0x000000000c000c38                FLASH_IRQHandler_S
 .text.SERR_IRQHandler
                0x000000000c000c3a        0x2 bl2/CMakeFiles/bl2.dir/__/platform/ext/target/stm/common/stm32l5xx/Device/Source/startup_stm32l5xx_bl2.o
                0x000000000c000c3a                SERR_IRQHandler
 .text.RCC_IRQHandler
                0x000000000c000c3c        0x2 bl2/CMakeFiles/bl2.dir/__/platform/ext/target/stm/common/stm32l5xx/Device/Source/startup_stm32l5xx_bl2.o
                0x000000000c000c3c                RCC_IRQHandler
 .text.RCC_IRQHandler_S
                0x000000000c000c3e        0x2 bl2/CMakeFiles/bl2.dir/__/platform/ext/target/stm/common/stm32l5xx/Device/Source/startup_stm32l5xx_bl2.o
                0x000000000c000c3e                RCC_IRQHandler_S
 .text.EXTI0_IRQHandler
                0x000000000c000c40        0x2 bl2/CMakeFiles/bl2.dir/__/platform/ext/target/stm/common/stm32l5xx/Device/Source/startup_stm32l5xx_bl2.o
                0x000000000c000c40                EXTI0_IRQHandler
 .text.EXTI1_IRQHandler
                0x000000000c000c42        0x2 bl2/CMakeFiles/bl2.dir/__/platform/ext/target/stm/common/stm32l5xx/Device/Source/startup_stm32l5xx_bl2.o
                0x000000000c000c42                EXTI1_IRQHandler
 .text.EXTI2_IRQHandler
                0x000000000c000c44        0x2 bl2/CMakeFiles/bl2.dir/__/platform/ext/target/stm/common/stm32l5xx/Device/Source/startup_stm32l5xx_bl2.o
                0x000000000c000c44                EXTI2_IRQHandler
 .text.EXTI3_IRQHandler
                0x000000000c000c46        0x2 bl2/CMakeFiles/bl2.dir/__/platform/ext/target/stm/common/stm32l5xx/Device/Source/startup_stm32l5xx_bl2.o
                0x000000000c000c46                EXTI3_IRQHandler
 .text.EXTI4_IRQHandler
                0x000000000c000c48        0x2 bl2/CMakeFiles/bl2.dir/__/platform/ext/target/stm/common/stm32l5xx/Device/Source/startup_stm32l5xx_bl2.o
                0x000000000c000c48                EXTI4_IRQHandler
 .text.EXTI5_IRQHandler
                0x000000000c000c4a        0x2 bl2/CMakeFiles/bl2.dir/__/platform/ext/target/stm/common/stm32l5xx/Device/Source/startup_stm32l5xx_bl2.o
                0x000000000c000c4a                EXTI5_IRQHandler
 .text.EXTI6_IRQHandler
                0x000000000c000c4c        0x2 bl2/CMakeFiles/bl2.dir/__/platform/ext/target/stm/common/stm32l5xx/Device/Source/startup_stm32l5xx_bl2.o
                0x000000000c000c4c                EXTI6_IRQHandler
 .text.EXTI7_IRQHandler
                0x000000000c000c4e        0x2 bl2/CMakeFiles/bl2.dir/__/platform/ext/target/stm/common/stm32l5xx/Device/Source/startup_stm32l5xx_bl2.o
                0x000000000c000c4e                EXTI7_IRQHandler
 .text.EXTI8_IRQHandler
                0x000000000c000c50        0x2 bl2/CMakeFiles/bl2.dir/__/platform/ext/target/stm/common/stm32l5xx/Device/Source/startup_stm32l5xx_bl2.o
                0x000000000c000c50                EXTI8_IRQHandler
 .text.EXTI9_IRQHandler
                0x000000000c000c52        0x2 bl2/CMakeFiles/bl2.dir/__/platform/ext/target/stm/common/stm32l5xx/Device/Source/startup_stm32l5xx_bl2.o
                0x000000000c000c52                EXTI9_IRQHandler
 .text.EXTI10_IRQHandler
                0x000000000c000c54        0x2 bl2/CMakeFiles/bl2.dir/__/platform/ext/target/stm/common/stm32l5xx/Device/Source/startup_stm32l5xx_bl2.o
                0x000000000c000c54                EXTI10_IRQHandler
 .text.EXTI11_IRQHandler
                0x000000000c000c56        0x2 bl2/CMakeFiles/bl2.dir/__/platform/ext/target/stm/common/stm32l5xx/Device/Source/startup_stm32l5xx_bl2.o
                0x000000000c000c56                EXTI11_IRQHandler
 .text.EXTI12_IRQHandler
                0x000000000c000c58        0x2 bl2/CMakeFiles/bl2.dir/__/platform/ext/target/stm/common/stm32l5xx/Device/Source/startup_stm32l5xx_bl2.o
                0x000000000c000c58                EXTI12_IRQHandler
 .text.EXTI13_IRQHandler
                0x000000000c000c5a        0x2 bl2/CMakeFiles/bl2.dir/__/platform/ext/target/stm/common/stm32l5xx/Device/Source/startup_stm32l5xx_bl2.o
                0x000000000c000c5a                EXTI13_IRQHandler
 .text.EXTI14_IRQHandler
                0x000000000c000c5c        0x2 bl2/CMakeFiles/bl2.dir/__/platform/ext/target/stm/common/stm32l5xx/Device/Source/startup_stm32l5xx_bl2.o
                0x000000000c000c5c                EXTI14_IRQHandler
 .text.EXTI15_IRQHandler
                0x000000000c000c5e        0x2 bl2/CMakeFiles/bl2.dir/__/platform/ext/target/stm/common/stm32l5xx/Device/Source/startup_stm32l5xx_bl2.o
                0x000000000c000c5e                EXTI15_IRQHandler
 .text.DMAMUX1_IRQHandler
                0x000000000c000c60        0x2 bl2/CMakeFiles/bl2.dir/__/platform/ext/target/stm/common/stm32l5xx/Device/Source/startup_stm32l5xx_bl2.o
                0x000000000c000c60                DMAMUX1_IRQHandler
 .text.DMAMUX1_IRQHandler_S
                0x000000000c000c62        0x2 bl2/CMakeFiles/bl2.dir/__/platform/ext/target/stm/common/stm32l5xx/Device/Source/startup_stm32l5xx_bl2.o
                0x000000000c000c62                DMAMUX1_IRQHandler_S
 .text.DMA1_Channel1_IRQHandler
                0x000000000c000c64        0x2 bl2/CMakeFiles/bl2.dir/__/platform/ext/target/stm/common/stm32l5xx/Device/Source/startup_stm32l5xx_bl2.o
                0x000000000c000c64                DMA1_Channel1_IRQHandler
 .text.DMA1_Channel2_IRQHandler
                0x000000000c000c66        0x2 bl2/CMakeFiles/bl2.dir/__/platform/ext/target/stm/common/stm32l5xx/Device/Source/startup_stm32l5xx_bl2.o
                0x000000000c000c66                DMA1_Channel2_IRQHandler
 .text.DMA1_Channel3_IRQHandler
                0x000000000c000c68        0x2 bl2/CMakeFiles/bl2.dir/__/platform/ext/target/stm/common/stm32l5xx/Device/Source/startup_stm32l5xx_bl2.o
                0x000000000c000c68                DMA1_Channel3_IRQHandler
 .text.DMA1_Channel4_IRQHandler
                0x000000000c000c6a        0x2 bl2/CMakeFiles/bl2.dir/__/platform/ext/target/stm/common/stm32l5xx/Device/Source/startup_stm32l5xx_bl2.o
                0x000000000c000c6a                DMA1_Channel4_IRQHandler
 .text.DMA1_Channel5_IRQHandler
                0x000000000c000c6c        0x2 bl2/CMakeFiles/bl2.dir/__/platform/ext/target/stm/common/stm32l5xx/Device/Source/startup_stm32l5xx_bl2.o
                0x000000000c000c6c                DMA1_Channel5_IRQHandler
 .text.DMA1_Channel6_IRQHandler
                0x000000000c000c6e        0x2 bl2/CMakeFiles/bl2.dir/__/platform/ext/target/stm/common/stm32l5xx/Device/Source/startup_stm32l5xx_bl2.o
                0x000000000c000c6e                DMA1_Channel6_IRQHandler
 .text.DMA1_Channel7_IRQHandler
                0x000000000c000c70        0x2 bl2/CMakeFiles/bl2.dir/__/platform/ext/target/stm/common/stm32l5xx/Device/Source/startup_stm32l5xx_bl2.o
                0x000000000c000c70                DMA1_Channel7_IRQHandler
 .text.DMA1_Channel8_IRQHandler
                0x000000000c000c72        0x2 bl2/CMakeFiles/bl2.dir/__/platform/ext/target/stm/common/stm32l5xx/Device/Source/startup_stm32l5xx_bl2.o
                0x000000000c000c72                DMA1_Channel8_IRQHandler
 .text.ADC1_2_IRQHandler
                0x000000000c000c74        0x2 bl2/CMakeFiles/bl2.dir/__/platform/ext/target/stm/common/stm32l5xx/Device/Source/startup_stm32l5xx_bl2.o
                0x000000000c000c74                ADC1_2_IRQHandler
 .text.DAC_IRQHandler
                0x000000000c000c76        0x2 bl2/CMakeFiles/bl2.dir/__/platform/ext/target/stm/common/stm32l5xx/Device/Source/startup_stm32l5xx_bl2.o
                0x000000000c000c76                DAC_IRQHandler
 .text.FDCAN1_IT0_IRQHandler
                0x000000000c000c78        0x2 bl2/CMakeFiles/bl2.dir/__/platform/ext/target/stm/common/stm32l5xx/Device/Source/startup_stm32l5xx_bl2.o
                0x000000000c000c78                FDCAN1_IT0_IRQHandler
 .text.FDCAN1_IT1_IRQHandler
                0x000000000c000c7a        0x2 bl2/CMakeFiles/bl2.dir/__/platform/ext/target/stm/common/stm32l5xx/Device/Source/startup_stm32l5xx_bl2.o
                0x000000000c000c7a                FDCAN1_IT1_IRQHandler
 .text.TIM1_BRK_IRQHandler
                0x000000000c000c7c        0x2 bl2/CMakeFiles/bl2.dir/__/platform/ext/target/stm/common/stm32l5xx/Device/Source/startup_stm32l5xx_bl2.o
                0x000000000c000c7c                TIM1_BRK_IRQHandler
 .text.TIM1_UP_IRQHandler
                0x000000000c000c7e        0x2 bl2/CMakeFiles/bl2.dir/__/platform/ext/target/stm/common/stm32l5xx/Device/Source/startup_stm32l5xx_bl2.o
                0x000000000c000c7e                TIM1_UP_IRQHandler
 .text.TIM1_TRG_COM_IRQHandler
                0x000000000c000c80        0x2 bl2/CMakeFiles/bl2.dir/__/platform/ext/target/stm/common/stm32l5xx/Device/Source/startup_stm32l5xx_bl2.o
                0x000000000c000c80                TIM1_TRG_COM_IRQHandler
 .text.TIM1_CC_IRQHandler
                0x000000000c000c82        0x2 bl2/CMakeFiles/bl2.dir/__/platform/ext/target/stm/common/stm32l5xx/Device/Source/startup_stm32l5xx_bl2.o
                0x000000000c000c82                TIM1_CC_IRQHandler
 .text.TIM2_IRQHandler
                0x000000000c000c84        0x2 bl2/CMakeFiles/bl2.dir/__/platform/ext/target/stm/common/stm32l5xx/Device/Source/startup_stm32l5xx_bl2.o
                0x000000000c000c84                TIM2_IRQHandler
 .text.TIM3_IRQHandler
                0x000000000c000c86        0x2 bl2/CMakeFiles/bl2.dir/__/platform/ext/target/stm/common/stm32l5xx/Device/Source/startup_stm32l5xx_bl2.o
                0x000000000c000c86                TIM3_IRQHandler
 .text.TIM4_IRQHandler
                0x000000000c000c88        0x2 bl2/CMakeFiles/bl2.dir/__/platform/ext/target/stm/common/stm32l5xx/Device/Source/startup_stm32l5xx_bl2.o
                0x000000000c000c88                TIM4_IRQHandler
 .text.TIM5_IRQHandler
                0x000000000c000c8a        0x2 bl2/CMakeFiles/bl2.dir/__/platform/ext/target/stm/common/stm32l5xx/Device/Source/startup_stm32l5xx_bl2.o
                0x000000000c000c8a                TIM5_IRQHandler
 .text.TIM6_IRQHandler
                0x000000000c000c8c        0x2 bl2/CMakeFiles/bl2.dir/__/platform/ext/target/stm/common/stm32l5xx/Device/Source/startup_stm32l5xx_bl2.o
                0x000000000c000c8c                TIM6_IRQHandler
 .text.TIM7_IRQHandler
                0x000000000c000c8e        0x2 bl2/CMakeFiles/bl2.dir/__/platform/ext/target/stm/common/stm32l5xx/Device/Source/startup_stm32l5xx_bl2.o
                0x000000000c000c8e                TIM7_IRQHandler
 .text.TIM8_BRK_IRQHandler
                0x000000000c000c90        0x2 bl2/CMakeFiles/bl2.dir/__/platform/ext/target/stm/common/stm32l5xx/Device/Source/startup_stm32l5xx_bl2.o
                0x000000000c000c90                TIM8_BRK_IRQHandler
 .text.TIM8_UP_IRQHandler
                0x000000000c000c92        0x2 bl2/CMakeFiles/bl2.dir/__/platform/ext/target/stm/common/stm32l5xx/Device/Source/startup_stm32l5xx_bl2.o
                0x000000000c000c92                TIM8_UP_IRQHandler
 .text.TIM8_TRG_COM_IRQHandler
                0x000000000c000c94        0x2 bl2/CMakeFiles/bl2.dir/__/platform/ext/target/stm/common/stm32l5xx/Device/Source/startup_stm32l5xx_bl2.o
                0x000000000c000c94                TIM8_TRG_COM_IRQHandler
 .text.TIM8_CC_IRQHandler
                0x000000000c000c96        0x2 bl2/CMakeFiles/bl2.dir/__/platform/ext/target/stm/common/stm32l5xx/Device/Source/startup_stm32l5xx_bl2.o
                0x000000000c000c96                TIM8_CC_IRQHandler
 .text.I2C1_EV_IRQHandler
                0x000000000c000c98        0x2 bl2/CMakeFiles/bl2.dir/__/platform/ext/target/stm/common/stm32l5xx/Device/Source/startup_stm32l5xx_bl2.o
                0x000000000c000c98                I2C1_EV_IRQHandler
 .text.I2C1_ER_IRQHandler
                0x000000000c000c9a        0x2 bl2/CMakeFiles/bl2.dir/__/platform/ext/target/stm/common/stm32l5xx/Device/Source/startup_stm32l5xx_bl2.o
                0x000000000c000c9a                I2C1_ER_IRQHandler
 .text.I2C2_EV_IRQHandler
                0x000000000c000c9c        0x2 bl2/CMakeFiles/bl2.dir/__/platform/ext/target/stm/common/stm32l5xx/Device/Source/startup_stm32l5xx_bl2.o
                0x000000000c000c9c                I2C2_EV_IRQHandler
 .text.I2C2_ER_IRQHandler
                0x000000000c000c9e        0x2 bl2/CMakeFiles/bl2.dir/__/platform/ext/target/stm/common/stm32l5xx/Device/Source/startup_stm32l5xx_bl2.o
                0x000000000c000c9e                I2C2_ER_IRQHandler
 .text.SPI1_IRQHandler
                0x000000000c000ca0        0x2 bl2/CMakeFiles/bl2.dir/__/platform/ext/target/stm/common/stm32l5xx/Device/Source/startup_stm32l5xx_bl2.o
                0x000000000c000ca0                SPI1_IRQHandler
 .text.SPI2_IRQHandler
                0x000000000c000ca2        0x2 bl2/CMakeFiles/bl2.dir/__/platform/ext/target/stm/common/stm32l5xx/Device/Source/startup_stm32l5xx_bl2.o
                0x000000000c000ca2                SPI2_IRQHandler
 .text.USART1_IRQHandler
                0x000000000c000ca4        0x2 bl2/CMakeFiles/bl2.dir/__/platform/ext/target/stm/common/stm32l5xx/Device/Source/startup_stm32l5xx_bl2.o
                0x000000000c000ca4                USART1_IRQHandler
 .text.USART2_IRQHandler
                0x000000000c000ca6        0x2 bl2/CMakeFiles/bl2.dir/__/platform/ext/target/stm/common/stm32l5xx/Device/Source/startup_stm32l5xx_bl2.o
                0x000000000c000ca6                USART2_IRQHandler
 .text.USART3_IRQHandler
                0x000000000c000ca8        0x2 bl2/CMakeFiles/bl2.dir/__/platform/ext/target/stm/common/stm32l5xx/Device/Source/startup_stm32l5xx_bl2.o
                0x000000000c000ca8                USART3_IRQHandler
 .text.UART4_IRQHandler
                0x000000000c000caa        0x2 bl2/CMakeFiles/bl2.dir/__/platform/ext/target/stm/common/stm32l5xx/Device/Source/startup_stm32l5xx_bl2.o
                0x000000000c000caa                UART4_IRQHandler
 .text.UART5_IRQHandler
                0x000000000c000cac        0x2 bl2/CMakeFiles/bl2.dir/__/platform/ext/target/stm/common/stm32l5xx/Device/Source/startup_stm32l5xx_bl2.o
                0x000000000c000cac                UART5_IRQHandler
 .text.LPUART1_IRQHandler
                0x000000000c000cae        0x2 bl2/CMakeFiles/bl2.dir/__/platform/ext/target/stm/common/stm32l5xx/Device/Source/startup_stm32l5xx_bl2.o
                0x000000000c000cae                LPUART1_IRQHandler
 .text.LPTIM1_IRQHandler
                0x000000000c000cb0        0x2 bl2/CMakeFiles/bl2.dir/__/platform/ext/target/stm/common/stm32l5xx/Device/Source/startup_stm32l5xx_bl2.o
                0x000000000c000cb0                LPTIM1_IRQHandler
 .text.LPTIM2_IRQHandler
                0x000000000c000cb2        0x2 bl2/CMakeFiles/bl2.dir/__/platform/ext/target/stm/common/stm32l5xx/Device/Source/startup_stm32l5xx_bl2.o
                0x000000000c000cb2                LPTIM2_IRQHandler
 .text.TIM15_IRQHandler
                0x000000000c000cb4        0x2 bl2/CMakeFiles/bl2.dir/__/platform/ext/target/stm/common/stm32l5xx/Device/Source/startup_stm32l5xx_bl2.o
                0x000000000c000cb4                TIM15_IRQHandler
 .text.TIM16_IRQHandler
                0x000000000c000cb6        0x2 bl2/CMakeFiles/bl2.dir/__/platform/ext/target/stm/common/stm32l5xx/Device/Source/startup_stm32l5xx_bl2.o
                0x000000000c000cb6                TIM16_IRQHandler
 .text.TIM17_IRQHandler
                0x000000000c000cb8        0x2 bl2/CMakeFiles/bl2.dir/__/platform/ext/target/stm/common/stm32l5xx/Device/Source/startup_stm32l5xx_bl2.o
                0x000000000c000cb8                TIM17_IRQHandler
 .text.COMP_IRQHandler
                0x000000000c000cba        0x2 bl2/CMakeFiles/bl2.dir/__/platform/ext/target/stm/common/stm32l5xx/Device/Source/startup_stm32l5xx_bl2.o
                0x000000000c000cba                COMP_IRQHandler
 .text.USB_FS_IRQHandler
                0x000000000c000cbc        0x2 bl2/CMakeFiles/bl2.dir/__/platform/ext/target/stm/common/stm32l5xx/Device/Source/startup_stm32l5xx_bl2.o
                0x000000000c000cbc                USB_FS_IRQHandler
 .text.CRS_IRQHandler
                0x000000000c000cbe        0x2 bl2/CMakeFiles/bl2.dir/__/platform/ext/target/stm/common/stm32l5xx/Device/Source/startup_stm32l5xx_bl2.o
                0x000000000c000cbe                CRS_IRQHandler
 .text.FMC_IRQHandler
                0x000000000c000cc0        0x2 bl2/CMakeFiles/bl2.dir/__/platform/ext/target/stm/common/stm32l5xx/Device/Source/startup_stm32l5xx_bl2.o
                0x000000000c000cc0                FMC_IRQHandler
 .text.OCTOSPI1_IRQHandler
                0x000000000c000cc2        0x2 bl2/CMakeFiles/bl2.dir/__/platform/ext/target/stm/common/stm32l5xx/Device/Source/startup_stm32l5xx_bl2.o
                0x000000000c000cc2                OCTOSPI1_IRQHandler
 .text.SDMMC1_IRQHandler
                0x000000000c000cc4        0x2 bl2/CMakeFiles/bl2.dir/__/platform/ext/target/stm/common/stm32l5xx/Device/Source/startup_stm32l5xx_bl2.o
                0x000000000c000cc4                SDMMC1_IRQHandler
 .text.DMA2_Channel1_IRQHandler
                0x000000000c000cc6        0x2 bl2/CMakeFiles/bl2.dir/__/platform/ext/target/stm/common/stm32l5xx/Device/Source/startup_stm32l5xx_bl2.o
                0x000000000c000cc6                DMA2_Channel1_IRQHandler
 .text.DMA2_Channel2_IRQHandler
                0x000000000c000cc8        0x2 bl2/CMakeFiles/bl2.dir/__/platform/ext/target/stm/common/stm32l5xx/Device/Source/startup_stm32l5xx_bl2.o
                0x000000000c000cc8                DMA2_Channel2_IRQHandler
 .text.DMA2_Channel3_IRQHandler
                0x000000000c000cca        0x2 bl2/CMakeFiles/bl2.dir/__/platform/ext/target/stm/common/stm32l5xx/Device/Source/startup_stm32l5xx_bl2.o
                0x000000000c000cca                DMA2_Channel3_IRQHandler
 .text.DMA2_Channel4_IRQHandler
                0x000000000c000ccc        0x2 bl2/CMakeFiles/bl2.dir/__/platform/ext/target/stm/common/stm32l5xx/Device/Source/startup_stm32l5xx_bl2.o
                0x000000000c000ccc                DMA2_Channel4_IRQHandler
 .text.DMA2_Channel5_IRQHandler
                0x000000000c000cce        0x2 bl2/CMakeFiles/bl2.dir/__/platform/ext/target/stm/common/stm32l5xx/Device/Source/startup_stm32l5xx_bl2.o
                0x000000000c000cce                DMA2_Channel5_IRQHandler
 .text.DMA2_Channel6_IRQHandler
                0x000000000c000cd0        0x2 bl2/CMakeFiles/bl2.dir/__/platform/ext/target/stm/common/stm32l5xx/Device/Source/startup_stm32l5xx_bl2.o
                0x000000000c000cd0                DMA2_Channel6_IRQHandler
 .text.DMA2_Channel7_IRQHandler
                0x000000000c000cd2        0x2 bl2/CMakeFiles/bl2.dir/__/platform/ext/target/stm/common/stm32l5xx/Device/Source/startup_stm32l5xx_bl2.o
                0x000000000c000cd2                DMA2_Channel7_IRQHandler
 .text.DMA2_Channel8_IRQHandler
                0x000000000c000cd4        0x2 bl2/CMakeFiles/bl2.dir/__/platform/ext/target/stm/common/stm32l5xx/Device/Source/startup_stm32l5xx_bl2.o
                0x000000000c000cd4                DMA2_Channel8_IRQHandler
 .text.I2C3_EV_IRQHandler
                0x000000000c000cd6        0x2 bl2/CMakeFiles/bl2.dir/__/platform/ext/target/stm/common/stm32l5xx/Device/Source/startup_stm32l5xx_bl2.o
                0x000000000c000cd6                I2C3_EV_IRQHandler
 .text.I2C3_ER_IRQHandler
                0x000000000c000cd8        0x2 bl2/CMakeFiles/bl2.dir/__/platform/ext/target/stm/common/stm32l5xx/Device/Source/startup_stm32l5xx_bl2.o
                0x000000000c000cd8                I2C3_ER_IRQHandler
 .text.SAI1_IRQHandler
                0x000000000c000cda        0x2 bl2/CMakeFiles/bl2.dir/__/platform/ext/target/stm/common/stm32l5xx/Device/Source/startup_stm32l5xx_bl2.o
                0x000000000c000cda                SAI1_IRQHandler
 .text.SAI2_IRQHandler
                0x000000000c000cdc        0x2 bl2/CMakeFiles/bl2.dir/__/platform/ext/target/stm/common/stm32l5xx/Device/Source/startup_stm32l5xx_bl2.o
                0x000000000c000cdc                SAI2_IRQHandler
 .text.TSC_IRQHandler
                0x000000000c000cde        0x2 bl2/CMakeFiles/bl2.dir/__/platform/ext/target/stm/common/stm32l5xx/Device/Source/startup_stm32l5xx_bl2.o
                0x000000000c000cde                TSC_IRQHandler
 .text.RNG_IRQHandler
                0x000000000c000ce0        0x2 bl2/CMakeFiles/bl2.dir/__/platform/ext/target/stm/common/stm32l5xx/Device/Source/startup_stm32l5xx_bl2.o
                0x000000000c000ce0                RNG_IRQHandler
 .text.FPU_IRQHandler
                0x000000000c000ce2        0x2 bl2/CMakeFiles/bl2.dir/__/platform/ext/target/stm/common/stm32l5xx/Device/Source/startup_stm32l5xx_bl2.o
                0x000000000c000ce2                FPU_IRQHandler
 .text.HASH_IRQHandler
                0x000000000c000ce4        0x2 bl2/CMakeFiles/bl2.dir/__/platform/ext/target/stm/common/stm32l5xx/Device/Source/startup_stm32l5xx_bl2.o
                0x000000000c000ce4                HASH_IRQHandler
 .text.LPTIM3_IRQHandler
                0x000000000c000ce6        0x2 bl2/CMakeFiles/bl2.dir/__/platform/ext/target/stm/common/stm32l5xx/Device/Source/startup_stm32l5xx_bl2.o
                0x000000000c000ce6                LPTIM3_IRQHandler
 .text.SPI3_IRQHandler
                0x000000000c000ce8        0x2 bl2/CMakeFiles/bl2.dir/__/platform/ext/target/stm/common/stm32l5xx/Device/Source/startup_stm32l5xx_bl2.o
                0x000000000c000ce8                SPI3_IRQHandler
 .text.I2C4_ER_IRQHandler
                0x000000000c000cea        0x2 bl2/CMakeFiles/bl2.dir/__/platform/ext/target/stm/common/stm32l5xx/Device/Source/startup_stm32l5xx_bl2.o
                0x000000000c000cea                I2C4_ER_IRQHandler
 .text.I2C4_EV_IRQHandler
                0x000000000c000cec        0x2 bl2/CMakeFiles/bl2.dir/__/platform/ext/target/stm/common/stm32l5xx/Device/Source/startup_stm32l5xx_bl2.o
                0x000000000c000cec                I2C4_EV_IRQHandler
 .text.DFSDM1_FLT0_IRQHandler
                0x000000000c000cee        0x2 bl2/CMakeFiles/bl2.dir/__/platform/ext/target/stm/common/stm32l5xx/Device/Source/startup_stm32l5xx_bl2.o
                0x000000000c000cee                DFSDM1_FLT0_IRQHandler
 .text.DFSDM1_FLT1_IRQHandler
                0x000000000c000cf0        0x2 bl2/CMakeFiles/bl2.dir/__/platform/ext/target/stm/common/stm32l5xx/Device/Source/startup_stm32l5xx_bl2.o
                0x000000000c000cf0                DFSDM1_FLT1_IRQHandler
 .text.DFSDM1_FLT2_IRQHandler
                0x000000000c000cf2        0x2 bl2/CMakeFiles/bl2.dir/__/platform/ext/target/stm/common/stm32l5xx/Device/Source/startup_stm32l5xx_bl2.o
                0x000000000c000cf2                DFSDM1_FLT2_IRQHandler
 .text.DFSDM1_FLT3_IRQHandler
                0x000000000c000cf4        0x2 bl2/CMakeFiles/bl2.dir/__/platform/ext/target/stm/common/stm32l5xx/Device/Source/startup_stm32l5xx_bl2.o
                0x000000000c000cf4                DFSDM1_FLT3_IRQHandler
 .text.UCPD1_IRQHandler
                0x000000000c000cf6        0x2 bl2/CMakeFiles/bl2.dir/__/platform/ext/target/stm/common/stm32l5xx/Device/Source/startup_stm32l5xx_bl2.o
                0x000000000c000cf6                UCPD1_IRQHandler
 .text.ICACHE_IRQHandler
                0x000000000c000cf8        0x2 bl2/CMakeFiles/bl2.dir/__/platform/ext/target/stm/common/stm32l5xx/Device/Source/startup_stm32l5xx_bl2.o
                0x000000000c000cf8                ICACHE_IRQHandler
 .text.OTFDEC1_IRQHandler
                0x000000000c000cfa        0x2 bl2/CMakeFiles/bl2.dir/__/platform/ext/target/stm/common/stm32l5xx/Device/Source/startup_stm32l5xx_bl2.o
                0x000000000c000cfa                OTFDEC1_IRQHandler
 .text.Reset_Handler
                0x000000000c000cfc       0x78 bl2/CMakeFiles/bl2.dir/__/platform/ext/target/stm/common/stm32l5xx/Device/Source/startup_stm32l5xx_bl2.o
                0x000000000c000cfc                Reset_Handler
 .text.crypto_hw_accelerator_init
                0x000000000c000d74        0x4 bl2/CMakeFiles/bl2.dir/__/platform/ext/target/stm/common/hal/accelerator/stm.o
                0x000000000c000d74                crypto_hw_accelerator_init
 .text.boot_initialize_area
                0x000000000c000d78       0x60 bl2/ext/mcuboot/bootutil/libbootutil.a(loader.o)
 .text.boot_read_sectors
                0x000000000c000dd8       0x5e bl2/ext/mcuboot/bootutil/libbootutil.a(loader.o)
 .text.boot_read_image_headers
                0x000000000c000e36       0x3a bl2/ext/mcuboot/bootutil/libbootutil.a(loader.o)
 .text.boot_update_security_counter.constprop.0
                0x000000000c000e70       0x40 bl2/ext/mcuboot/bootutil/libbootutil.a(loader.o)
 .text.boot_validate_slot.isra.0
                0x000000000c000eb0      0x128 bl2/ext/mcuboot/bootutil/libbootutil.a(loader.o)
 .text.boot_status_reset
                0x000000000c000fd8       0x12 bl2/ext/mcuboot/bootutil/libbootutil.a(loader.o)
                0x000000000c000fd8                boot_status_reset
 .text.boot_status_is_reset
                0x000000000c000fea       0x1a bl2/ext/mcuboot/bootutil/libbootutil.a(loader.o)
                0x000000000c000fea                boot_status_is_reset
 .text.boot_copy_region
                0x000000000c001004       0x58 bl2/ext/mcuboot/bootutil/libbootutil.a(loader.o)
                0x000000000c001004                boot_copy_region
 .text.context_boot_go
                0x000000000c00105c      0x59c bl2/ext/mcuboot/bootutil/libbootutil.a(loader.o)
                0x000000000c00105c                context_boot_go
 .text.boot_go_for_image_id
                0x000000000c0015f8       0x38 bl2/ext/mcuboot/bootutil/libbootutil.a(loader.o)
                0x000000000c0015f8                boot_go_for_image_id
 .text.boot_slots_compatible
                0x000000000c001630       0xa0 bl2/ext/mcuboot/bootutil/libbootutil.a(swap_scratch.o)
                0x000000000c001630                boot_slots_compatible
 .text.boot_read_image_header
                0x000000000c0016d0       0x38 bl2/ext/mcuboot/bootutil/libbootutil.a(swap_scratch.o)
                0x000000000c0016d0                boot_read_image_header
 .text.bootutil_tlv_iter_begin
                0x000000000c001708       0x98 bl2/ext/mcuboot/bootutil/libbootutil.a(tlv.o)
                0x000000000c001708                bootutil_tlv_iter_begin
 .text.bootutil_tlv_iter_next
                0x000000000c0017a0       0x96 bl2/ext/mcuboot/bootutil/libbootutil.a(tlv.o)
                0x000000000c0017a0                bootutil_tlv_iter_next
 .text.bootutil_tlv_iter_is_prot
                0x000000000c001836       0x1c bl2/ext/mcuboot/bootutil/libbootutil.a(tlv.o)
                0x000000000c001836                bootutil_tlv_iter_is_prot
 *fill*         0x000000000c001852        0x2 
 .text.boot_add_data_to_shared_area
                0x000000000c001854       0xe8 bl2/ext/mcuboot/bootutil/libbootutil.a(boot_record.o)
                0x000000000c001854                boot_add_data_to_shared_area
 .text.boot_save_boot_status
                0x000000000c00193c       0xa2 bl2/ext/mcuboot/bootutil/libbootutil.a(boot_record.o)
                0x000000000c00193c                boot_save_boot_status
 .text.boot_fih_memequal
                0x000000000c0019de        0x4 bl2/ext/mcuboot/bootutil/libbootutil.a(bootutil_misc.o)
                0x000000000c0019de                boot_fih_memequal
 .text.bootutil_max_image_size
                0x000000000c0019e2        0x4 bl2/ext/mcuboot/bootutil/libbootutil.a(bootutil_misc.o)
                0x000000000c0019e2                bootutil_max_image_size
 .text.boot_swap_info_off
                0x000000000c0019e6        0xc bl2/ext/mcuboot/bootutil/libbootutil.a(bootutil_public.o)
                0x000000000c0019e6                boot_swap_info_off
 .text.boot_magic_compatible_check
                0x000000000c0019f2       0x1c bl2/ext/mcuboot/bootutil/libbootutil.a(bootutil_public.o)
                0x000000000c0019f2                boot_magic_compatible_check
 .text.bootutil_buffer_is_erased
                0x000000000c001a0e       0x26 bl2/ext/mcuboot/bootutil/libbootutil.a(bootutil_public.o)
                0x000000000c001a0e                bootutil_buffer_is_erased
 .text.boot_read_flag
                0x000000000c001a34       0x38 bl2/ext/mcuboot/bootutil/libbootutil.a(bootutil_public.o)
 .text.boot_read_image_ok
                0x000000000c001a6c        0xc bl2/ext/mcuboot/bootutil/libbootutil.a(bootutil_public.o)
                0x000000000c001a6c                boot_read_image_ok
 .text.boot_read_swap_state
                0x000000000c001a78       0xac bl2/ext/mcuboot/bootutil/libbootutil.a(bootutil_public.o)
                0x000000000c001a78                boot_read_swap_state
 .text.boot_read_swap_state_by_id
                0x000000000c001b24       0x28 bl2/ext/mcuboot/bootutil/libbootutil.a(bootutil_public.o)
                0x000000000c001b24                boot_read_swap_state_by_id
 .text.boot_swap_type_multi
                0x000000000c001b4c      0x114 bl2/ext/mcuboot/bootutil/libbootutil.a(bootutil_public.o)
                0x000000000c001b4c                boot_swap_type_multi
 .text.bootutil_get_img_security_cnt
                0x000000000c001c60       0x60 bl2/ext/mcuboot/bootutil/libbootutil.a(image_validate.o)
                0x000000000c001c60                bootutil_get_img_security_cnt
 .text.bootutil_img_validate
                0x000000000c001cc0      0x208 bl2/ext/mcuboot/bootutil/libbootutil.a(image_validate.o)
                0x000000000c001cc0                bootutil_img_validate
 .text.bootutil_verify_sig
                0x000000000c001ec8       0xac bl2/ext/mcuboot/bootutil/libbootutil.a(image_ecdsa.o)
                0x000000000c001ec8                bootutil_verify_sig
 .text.SystemInit
                0x000000000c001f74        0x2 platform/libplatform_bl2.a(system_stm32l5xx.o)
                0x000000000c001f74                SystemInit
 *fill*         0x000000000c001f76        0x2 
 .text.SystemCoreClockUpdate
                0x000000000c001f78       0x94 platform/libplatform_bl2.a(system_stm32l5xx.o)
                0x000000000c001f78                SystemCoreClockUpdate
 .text.boot_platform_init
                0x000000000c00200c      0x110 platform/libplatform_bl2.a(boot_hal_bl2.o)
                0x000000000c00200c                boot_platform_init
 .text.TFM_LL_SECU_ApplyRunTimeProtections
                0x000000000c00211c       0xe8 platform/libplatform_bl2.a(tfm_low_level_security.o)
                0x000000000c00211c                TFM_LL_SECU_ApplyRunTimeProtections
 .text.TFM_LL_SECU_CheckStaticProtections
                0x000000000c002204      0x218 platform/libplatform_bl2.a(tfm_low_level_security.o)
                0x000000000c002204                TFM_LL_SECU_CheckStaticProtections
 .text.memcpy_flash
                0x000000000c00241c       0x32 platform/libplatform_bl2.a(low_level_flash.o)
 *fill*         0x000000000c00244e        0x2 
 .text.Flash_GetVersion
                0x000000000c002450       0x20 platform/libplatform_bl2.a(low_level_flash.o)
 .text.Flash_GetCapabilities
                0x000000000c002470        0x4 platform/libplatform_bl2.a(low_level_flash.o)
 .text.Flash_Uninitialize
                0x000000000c002474        0x4 platform/libplatform_bl2.a(low_level_flash.o)
 .text.Flash_PowerControl
                0x000000000c002478       0x16 platform/libplatform_bl2.a(low_level_flash.o)
 .text.Flash_EraseChip
                0x000000000c00248e        0x6 platform/libplatform_bl2.a(low_level_flash.o)
 .text.Flash_GetStatus
                0x000000000c002494        0xc platform/libplatform_bl2.a(low_level_flash.o)
 .text.Flash_GetInfo
                0x000000000c0024a0        0x8 platform/libplatform_bl2.a(low_level_flash.o)
 .text.Flash_Initialize
                0x000000000c0024a8        0xe platform/libplatform_bl2.a(low_level_flash.o)
 *fill*         0x000000000c0024b6        0x2 
 .text.is_range_secure.constprop.0
                0x000000000c0024b8       0x38 platform/libplatform_bl2.a(low_level_flash.o)
 .text.Flash_ReadData
                0x000000000c0024f0       0x94 platform/libplatform_bl2.a(low_level_flash.o)
 .text.Flash_ProgramData
                0x000000000c002584      0x104 platform/libplatform_bl2.a(low_level_flash.o)
 .text.Flash_EraseSector
                0x000000000c002688       0xc0 platform/libplatform_bl2.a(low_level_flash.o)
 .text.NMI_Handler
                0x000000000c002748       0x68 platform/libplatform_bl2.a(low_level_flash.o)
                0x000000000c002748                NMI_Handler
 .text.HAL_MspInit
                0x000000000c0027b0        0x2 platform/libplatform_bl2.a(stm32l5xx_hal.o)
                0x000000000c0027b0                HAL_MspInit
 .text.HAL_Init
                0x000000000c0027b2       0x22 platform/libplatform_bl2.a(stm32l5xx_hal.o)
                0x000000000c0027b2                HAL_Init
 .text.FLASH_Program_DoubleWord
                0x000000000c0027d4       0x3c platform/libplatform_bl2.a(stm32l5xx_hal_flash.o)
 .text.HAL_FLASH_Unlock
                0x000000000c002810       0x40 platform/libplatform_bl2.a(stm32l5xx_hal_flash.o)
                0x000000000c002810                HAL_FLASH_Unlock
 .text.HAL_FLASH_Lock
                0x000000000c002850       0x28 platform/libplatform_bl2.a(stm32l5xx_hal_flash.o)
                0x000000000c002850                HAL_FLASH_Lock
 .text.HAL_FLASH_OB_Unlock
                0x000000000c002878       0x24 platform/libplatform_bl2.a(stm32l5xx_hal_flash.o)
                0x000000000c002878                HAL_FLASH_OB_Unlock
 .text.HAL_FLASH_OB_Launch
                0x000000000c00289c       0x14 platform/libplatform_bl2.a(stm32l5xx_hal_flash.o)
                0x000000000c00289c                HAL_FLASH_OB_Launch
 .text.FLASH_WaitForLastOperation
                0x000000000c0028b0       0x78 platform/libplatform_bl2.a(stm32l5xx_hal_flash.o)
                0x000000000c0028b0                FLASH_WaitForLastOperation
 .text.HAL_FLASH_Program
                0x000000000c002928       0x6c platform/libplatform_bl2.a(stm32l5xx_hal_flash.o)
                0x000000000c002928                HAL_FLASH_Program
 .text.FLASH_MassErase
                0x000000000c002994       0x60 platform/libplatform_bl2.a(stm32l5xx_hal_flash_ex.o)
 .text.HAL_FLASHEx_OBProgram
                0x000000000c0029f4      0x268 platform/libplatform_bl2.a(stm32l5xx_hal_flash_ex.o)
                0x000000000c0029f4                HAL_FLASHEx_OBProgram
 .text.HAL_FLASHEx_OBGetConfig
                0x000000000c002c5c       0xfc platform/libplatform_bl2.a(stm32l5xx_hal_flash_ex.o)
                0x000000000c002c5c                HAL_FLASHEx_OBGetConfig
 .text.HAL_FLASHEx_ConfigPrivMode
                0x000000000c002d58       0x18 platform/libplatform_bl2.a(stm32l5xx_hal_flash_ex.o)
                0x000000000c002d58                HAL_FLASHEx_ConfigPrivMode
 .text.FLASH_PageErase
                0x000000000c002d70       0x64 platform/libplatform_bl2.a(stm32l5xx_hal_flash_ex.o)
                0x000000000c002d70                FLASH_PageErase
 .text.HAL_FLASHEx_Erase
                0x000000000c002dd4       0xac platform/libplatform_bl2.a(stm32l5xx_hal_flash_ex.o)
                0x000000000c002dd4                HAL_FLASHEx_Erase
 .text.HAL_PWREx_GetVoltageRange
                0x000000000c002e80       0x10 platform/libplatform_bl2.a(stm32l5xx_hal_pwr_ex.o)
                0x000000000c002e80                HAL_PWREx_GetVoltageRange
 .text.HAL_PWREx_EnableVddIO2
                0x000000000c002e90       0x10 platform/libplatform_bl2.a(stm32l5xx_hal_pwr_ex.o)
                0x000000000c002e90                HAL_PWREx_EnableVddIO2
 .text.HAL_PWREx_ConfigSRAM2ContentRetention
                0x000000000c002ea0       0x14 platform/libplatform_bl2.a(stm32l5xx_hal_pwr_ex.o)
                0x000000000c002ea0                HAL_PWREx_ConfigSRAM2ContentRetention
 .text.HAL_PWREx_EnableSRAM2ContentRetention
                0x000000000c002eb4        0x8 platform/libplatform_bl2.a(stm32l5xx_hal_pwr_ex.o)
                0x000000000c002eb4                HAL_PWREx_EnableSRAM2ContentRetention
 .text.HAL_PWREx_SMPS_GetEffectiveMode
                0x000000000c002ebc       0x1c platform/libplatform_bl2.a(stm32l5xx_hal_pwr_ex.o)
                0x000000000c002ebc                HAL_PWREx_SMPS_GetEffectiveMode
 .text.HAL_PWREx_ControlVoltageScaling
                0x000000000c002ed8       0x6c platform/libplatform_bl2.a(stm32l5xx_hal_pwr_ex.o)
                0x000000000c002ed8                HAL_PWREx_ControlVoltageScaling
 .text.RCC_SetFlashLatencyFromMSIRange
                0x000000000c002f44       0x74 platform/libplatform_bl2.a(stm32l5xx_hal_rcc.o)
 .text.HAL_RCC_GetSysClockFreq
                0x000000000c002fb8       0xa8 platform/libplatform_bl2.a(stm32l5xx_hal_rcc.o)
                0x000000000c002fb8                HAL_RCC_GetSysClockFreq
 .text.HAL_RCC_GetHCLKFreq
                0x000000000c003060       0x20 platform/libplatform_bl2.a(stm32l5xx_hal_rcc.o)
                0x000000000c003060                HAL_RCC_GetHCLKFreq
 .text.HAL_RCC_OscConfig
                0x000000000c003080      0x698 platform/libplatform_bl2.a(stm32l5xx_hal_rcc.o)
                0x000000000c003080                HAL_RCC_OscConfig
 .text.HAL_RCC_ClockConfig
                0x000000000c003718      0x20c platform/libplatform_bl2.a(stm32l5xx_hal_rcc.o)
                0x000000000c003718                HAL_RCC_ClockConfig
 .text.HAL_RCC_GetPCLK1Freq
                0x000000000c003924       0x20 platform/libplatform_bl2.a(stm32l5xx_hal_rcc.o)
                0x000000000c003924                HAL_RCC_GetPCLK1Freq
 .text.HAL_RCC_GetPCLK2Freq
                0x000000000c003944       0x20 platform/libplatform_bl2.a(stm32l5xx_hal_rcc.o)
                0x000000000c003944                HAL_RCC_GetPCLK2Freq
 .text.HAL_NVIC_SetPriorityGrouping
                0x000000000c003964       0x24 platform/libplatform_bl2.a(stm32l5xx_hal_cortex.o)
                0x000000000c003964                HAL_NVIC_SetPriorityGrouping
 .text.HAL_NVIC_SystemReset
                0x000000000c003988       0x24 platform/libplatform_bl2.a(stm32l5xx_hal_cortex.o)
                0x000000000c003988                HAL_NVIC_SystemReset
 .text.HAL_GPIO_Init
                0x000000000c0039ac      0x1ac platform/libplatform_bl2.a(stm32l5xx_hal_gpio.o)
                0x000000000c0039ac                HAL_GPIO_Init
 .text.HAL_GTZC_MPCBB_ConfigMem
                0x000000000c003b58       0xb0 platform/libplatform_bl2.a(stm32l5xx_hal_gtzc.o)
                0x000000000c003b58                HAL_GTZC_MPCBB_ConfigMem
 .text.HAL_GTZC_MPCBB_GetConfigMem
                0x000000000c003c08       0x68 platform/libplatform_bl2.a(stm32l5xx_hal_gtzc.o)
                0x000000000c003c08                HAL_GTZC_MPCBB_GetConfigMem
 .text.RNG_Init
                0x000000000c003c70       0x84 platform/libplatform_bl2.a(low_level_rng.o)
                0x000000000c003c70                RNG_Init
 .text.RNG_DeInit
                0x000000000c003cf4       0x28 platform/libplatform_bl2.a(low_level_rng.o)
                0x000000000c003cf4                RNG_DeInit
 .text.boot_platform_post_init
                0x000000000c003d1c        0xe platform/libplatform_bl2.a(boot_hal_bl2.o)
                0x000000000c003d1c                boot_platform_post_init
 .text.boot_platform_pre_load
                0x000000000c003d2a        0x4 platform/libplatform_bl2.a(boot_hal_bl2.o)
                0x000000000c003d2a                boot_platform_pre_load
 .text.boot_platform_post_load
                0x000000000c003d2e        0x4 platform/libplatform_bl2.a(boot_hal_bl2.o)
                0x000000000c003d2e                boot_platform_post_load
 .text.boot_platform_should_load_image
                0x000000000c003d32        0x4 platform/libplatform_bl2.a(boot_hal_bl2.o)
                0x000000000c003d32                boot_platform_should_load_image
 .text.boot_initiate_recovery_mode
                0x000000000c003d36        0x4 platform/libplatform_bl2.a(boot_hal_bl2.o)
                0x000000000c003d36                boot_initiate_recovery_mode
 *fill*         0x000000000c003d3a        0x2 
 .text.stdio_output_string
                0x000000000c003d3c       0x40 platform/libplatform_bl2.a(uart_stdout.o)
                0x000000000c003d3c                stdio_output_string
 .text._write   0x000000000c003d7c        0x8 platform/libplatform_bl2.a(uart_stdout.o)
                0x000000000c003d7c                _write
 .text.stdio_init
                0x000000000c003d84       0x30 platform/libplatform_bl2.a(uart_stdout.o)
                0x000000000c003d84                stdio_init
 .text.stdio_uninit
                0x000000000c003db4       0x20 platform/libplatform_bl2.a(uart_stdout.o)
                0x000000000c003db4                stdio_uninit
 .text.set_nv_counter_flash
                0x000000000c003dd4       0x3e platform/libplatform_bl2.a(nv_counters.o)
 .text.set_nv_counter_otp
                0x000000000c003e12       0x6c platform/libplatform_bl2.a(nv_counters.o)
 .text.read_nv_counter_otp.constprop.0
                0x000000000c003e7e       0x68 platform/libplatform_bl2.a(nv_counters.o)
 .text.tfm_plat_read_nv_counter.part.0
                0x000000000c003ee6       0x42 platform/libplatform_bl2.a(nv_counters.o)
 .text.tfm_plat_init_nv_counter
                0x000000000c003f28        0x4 platform/libplatform_bl2.a(nv_counters.o)
                0x000000000c003f28                tfm_plat_init_nv_counter
 .text.tfm_plat_read_nv_counter
                0x000000000c003f2c       0x10 platform/libplatform_bl2.a(nv_counters.o)
                0x000000000c003f2c                tfm_plat_read_nv_counter
 .text.tfm_plat_set_nv_counter
                0x000000000c003f3c       0x5a platform/libplatform_bl2.a(nv_counters.o)
                0x000000000c003f3c                tfm_plat_set_nv_counter
 *fill*         0x000000000c003f96        0x2 
 .text.erase_flash_region
                0x000000000c003f98       0x3c platform/libplatform_bl2.a(flash_otp_nv_counters_backend.o)
 .text.copy_flash_region
                0x000000000c003fd4       0x78 platform/libplatform_bl2.a(flash_otp_nv_counters_backend.o)
 .text.make_backup
                0x000000000c00404c       0x26 platform/libplatform_bl2.a(flash_otp_nv_counters_backend.o)
 *fill*         0x000000000c004072        0x2 
 .text.read_otp_nv_counters_flash
                0x000000000c004074       0x7c platform/libplatform_bl2.a(flash_otp_nv_counters_backend.o)
                0x000000000c004074                read_otp_nv_counters_flash
 .text.write_otp_nv_counters_flash
                0x000000000c0040f0      0x1b0 platform/libplatform_bl2.a(flash_otp_nv_counters_backend.o)
                0x000000000c0040f0                write_otp_nv_counters_flash
 .text.init_otp_nv_counters_flash
                0x000000000c0042a0      0x154 platform/libplatform_bl2.a(flash_otp_nv_counters_backend.o)
                0x000000000c0042a0                init_otp_nv_counters_flash
 .text.tfm_plat_otp_init
                0x000000000c0043f4        0x4 platform/libplatform_bl2.a(otp_flash.o)
                0x000000000c0043f4                tfm_plat_otp_init
 .text.tfm_plat_otp_get_size
                0x000000000c0043f8       0x9c platform/libplatform_bl2.a(otp_flash.o)
                0x000000000c0043f8                tfm_plat_otp_get_size
 .text.write_to_output
                0x000000000c004494       0x28 platform/libplatform_bl2.a(otp_flash.o)
 .text.tfm_plat_otp_read
                0x000000000c0044bc       0xee platform/libplatform_bl2.a(otp_flash.o)
                0x000000000c0044bc                tfm_plat_otp_read
 .text.read_from_input
                0x000000000c0045aa       0x54 platform/libplatform_bl2.a(otp_flash.o)
 .text.tfm_plat_otp_write
                0x000000000c0045fe       0xee platform/libplatform_bl2.a(otp_flash.o)
                0x000000000c0045fe                tfm_plat_otp_write
 .text.tfm_plat_otp_secure_provisioning_start
                0x000000000c0046ec        0x4 platform/libplatform_bl2.a(otp_flash.o)
                0x000000000c0046ec                tfm_plat_otp_secure_provisioning_start
 .text.tfm_plat_otp_secure_provisioning_finish
                0x000000000c0046f0        0x4 platform/libplatform_bl2.a(otp_flash.o)
                0x000000000c0046f0                tfm_plat_otp_secure_provisioning_finish
 .text.USART_GetVersion
                0x000000000c0046f4       0x20 platform/libplatform_bl2.a(low_level_com.o)
 .text.USART_GetCapabilities
                0x000000000c004714        0x4 platform/libplatform_bl2.a(low_level_com.o)
 .text.USART0_Uninitialize
                0x000000000c004718        0x4 platform/libplatform_bl2.a(low_level_com.o)
 .text.USART0_PowerControl
                0x000000000c00471c        0x4 platform/libplatform_bl2.a(low_level_com.o)
 .text.USART0_Transfer
                0x000000000c004720        0x6 platform/libplatform_bl2.a(low_level_com.o)
 .text.USART0_GetTxCount
                0x000000000c004726        0x4 platform/libplatform_bl2.a(low_level_com.o)
 .text.USART0_Control
                0x000000000c00472a        0x4 platform/libplatform_bl2.a(low_level_com.o)
 .text.USART0_GetStatus
                0x000000000c00472e        0xc platform/libplatform_bl2.a(low_level_com.o)
 .text.USART0_SetModemControl
                0x000000000c00473a        0x6 platform/libplatform_bl2.a(low_level_com.o)
 .text.USART0_GetModemStatus
                0x000000000c004740        0xc platform/libplatform_bl2.a(low_level_com.o)
 .text.USART0_Receive
                0x000000000c00474c       0x20 platform/libplatform_bl2.a(low_level_com.o)
 .text.USART0_Send
                0x000000000c00476c       0x24 platform/libplatform_bl2.a(low_level_com.o)
 .text.USART0_Initialize
                0x000000000c004790       0xc4 platform/libplatform_bl2.a(low_level_com.o)
 .text.USART0_GetRxCount
                0x000000000c004854        0x4 platform/libplatform_bl2.a(low_level_com.o)
 .text.RCCEx_PLLSAI1_Config
                0x000000000c004858       0xf8 platform/libplatform_bl2.a(stm32l5xx_hal_rcc_ex.o)
 .text.RCCEx_PLLSAI2_Config.constprop.0
                0x000000000c004950       0xb8 platform/libplatform_bl2.a(stm32l5xx_hal_rcc_ex.o)
 .text.HAL_RCCEx_PeriphCLKConfig
                0x000000000c004a08      0x4bc platform/libplatform_bl2.a(stm32l5xx_hal_rcc_ex.o)
                0x000000000c004a08                HAL_RCCEx_PeriphCLKConfig
 .text.HAL_UART_MspInit
                0x000000000c004ec4        0x2 platform/libplatform_bl2.a(stm32l5xx_hal_uart.o)
                0x000000000c004ec4                HAL_UART_MspInit
 .text.HAL_UART_RxCpltCallback
                0x000000000c004ec6        0x2 platform/libplatform_bl2.a(stm32l5xx_hal_uart.o)
                0x000000000c004ec6                HAL_UART_RxCpltCallback
 .text.HAL_UART_ErrorCallback
                0x000000000c004ec8        0x2 platform/libplatform_bl2.a(stm32l5xx_hal_uart.o)
                0x000000000c004ec8                HAL_UART_ErrorCallback
 .text.HAL_UARTEx_RxEventCallback
                0x000000000c004eca        0x2 platform/libplatform_bl2.a(stm32l5xx_hal_uart.o)
                0x000000000c004eca                HAL_UARTEx_RxEventCallback
 .text.UART_RxISR_8BIT
                0x000000000c004ecc       0x7a platform/libplatform_bl2.a(stm32l5xx_hal_uart.o)
 .text.UART_RxISR_16BIT
                0x000000000c004f46       0x76 platform/libplatform_bl2.a(stm32l5xx_hal_uart.o)
 .text.UART_RxISR_8BIT_FIFOEN
                0x000000000c004fbc      0x134 platform/libplatform_bl2.a(stm32l5xx_hal_uart.o)
 .text.UART_RxISR_16BIT_FIFOEN
                0x000000000c0050f0      0x12c platform/libplatform_bl2.a(stm32l5xx_hal_uart.o)
 .text.UART_SetConfig
                0x000000000c00521c      0x274 platform/libplatform_bl2.a(stm32l5xx_hal_uart.o)
                0x000000000c00521c                UART_SetConfig
 .text.UART_AdvFeatureConfig
                0x000000000c005490       0xaa platform/libplatform_bl2.a(stm32l5xx_hal_uart.o)
                0x000000000c005490                UART_AdvFeatureConfig
 .text.UART_WaitOnFlagUntilTimeout
                0x000000000c00553a       0x96 platform/libplatform_bl2.a(stm32l5xx_hal_uart.o)
                0x000000000c00553a                UART_WaitOnFlagUntilTimeout
 .text.HAL_UART_Transmit
                0x000000000c0055d0       0xb8 platform/libplatform_bl2.a(stm32l5xx_hal_uart.o)
                0x000000000c0055d0                HAL_UART_Transmit
 .text.UART_CheckIdleState
                0x000000000c005688       0x68 platform/libplatform_bl2.a(stm32l5xx_hal_uart.o)
                0x000000000c005688                UART_CheckIdleState
 .text.HAL_UART_Init
                0x000000000c0056f0       0x60 platform/libplatform_bl2.a(stm32l5xx_hal_uart.o)
                0x000000000c0056f0                HAL_UART_Init
 .text.UART_Start_Receive_IT
                0x000000000c005750       0xd8 platform/libplatform_bl2.a(stm32l5xx_hal_uart.o)
                0x000000000c005750                UART_Start_Receive_IT
 .text.HAL_UART_Receive_IT
                0x000000000c005828       0x4c platform/libplatform_bl2.a(stm32l5xx_hal_uart.o)
                0x000000000c005828                HAL_UART_Receive_IT
 .text.HAL_RNG_MspInit
                0x000000000c005874        0x2 platform/libplatform_bl2.a(stm32l5xx_hal_rng.o)
                0x000000000c005874                HAL_RNG_MspInit
 *fill*         0x000000000c005876        0x2 
 .text.HAL_RNG_Init
                0x000000000c005878       0xbc platform/libplatform_bl2.a(stm32l5xx_hal_rng.o)
                0x000000000c005878                HAL_RNG_Init
 .text.HAL_RNG_MspDeInit
                0x000000000c005934        0x2 platform/libplatform_bl2.a(stm32l5xx_hal_rng.o)
                0x000000000c005934                HAL_RNG_MspDeInit
 .text.HAL_RNG_DeInit
                0x000000000c005936       0x74 platform/libplatform_bl2.a(stm32l5xx_hal_rng.o)
                0x000000000c005936                HAL_RNG_DeInit
 .text.HAL_RNG_ErrorCallback
                0x000000000c0059aa        0x2 platform/libplatform_bl2.a(stm32l5xx_hal_rng.o)
                0x000000000c0059aa                HAL_RNG_ErrorCallback
 .text.RNG_RecoverSeedError
                0x000000000c0059ac       0x86 platform/libplatform_bl2.a(stm32l5xx_hal_rng.o)
                0x000000000c0059ac                RNG_RecoverSeedError
 .text.HAL_RNG_GenerateRandomNumber
                0x000000000c005a32       0x9e platform/libplatform_bl2.a(stm32l5xx_hal_rng.o)
                0x000000000c005a32                HAL_RNG_GenerateRandomNumber
 .text.verify_header
                0x000000000c005ad0       0x40 bl2/mbedcrypto/library/libmbedcrypto.a(memory_buffer_alloc.o)
 .text.verify_chain
                0x000000000c005b10       0x3c bl2/mbedcrypto/library/libmbedcrypto.a(memory_buffer_alloc.o)
 .text.buffer_alloc_calloc
                0x000000000c005b4c      0x118 bl2/mbedcrypto/library/libmbedcrypto.a(memory_buffer_alloc.o)
 .text.buffer_alloc_free
                0x000000000c005c64      0x10c bl2/mbedcrypto/library/libmbedcrypto.a(memory_buffer_alloc.o)
 .text.mbedtls_memory_buffer_alloc_init
                0x000000000c005d70       0x64 bl2/mbedcrypto/library/libmbedcrypto.a(memory_buffer_alloc.o)
                0x000000000c005d70                mbedtls_memory_buffer_alloc_init
 .text.mbedtls_platform_set_calloc_free
                0x000000000c005dd4       0x14 bl2/mbedcrypto/library/libmbedcrypto.a(platform.o)
                0x000000000c005dd4                mbedtls_platform_set_calloc_free
 .text.mbedtls_platform_zeroize
                0x000000000c005de8       0x18 bl2/mbedcrypto/library/libmbedcrypto.a(platform_util.o)
                0x000000000c005de8                mbedtls_platform_zeroize
 .text.mbedtls_psa_hash_abort
                0x000000000c005e00       0x24 bl2/mbedcrypto/library/libmbedcrypto.a(psa_crypto_hash.o)
                0x000000000c005e00                mbedtls_psa_hash_abort
 .text.mbedtls_psa_hash_setup
                0x000000000c005e24       0x58 bl2/mbedcrypto/library/libmbedcrypto.a(psa_crypto_hash.o)
                0x000000000c005e24                mbedtls_psa_hash_setup
 .text.mbedtls_psa_hash_update
                0x000000000c005e7c       0x24 bl2/mbedcrypto/library/libmbedcrypto.a(psa_crypto_hash.o)
                0x000000000c005e7c                mbedtls_psa_hash_update
 .text.mbedtls_psa_hash_finish
                0x000000000c005ea0       0x88 bl2/mbedcrypto/library/libmbedcrypto.a(psa_crypto_hash.o)
                0x000000000c005ea0                mbedtls_psa_hash_finish
 .text.mbedtls_sha256_init
                0x000000000c005f28        0x8 bl2/mbedcrypto/library/libmbedcrypto.a(sha256.o)
                0x000000000c005f28                mbedtls_sha256_init
 .text.mbedtls_sha256_free
                0x000000000c005f30        0xa bl2/mbedcrypto/library/libmbedcrypto.a(sha256.o)
                0x000000000c005f30                mbedtls_sha256_free
 *fill*         0x000000000c005f3a        0x2 
 .text.mbedtls_sha256_starts
                0x000000000c005f3c       0x5c bl2/mbedcrypto/library/libmbedcrypto.a(sha256.o)
                0x000000000c005f3c                mbedtls_sha256_starts
 .text.mbedtls_internal_sha256_process
                0x000000000c005f98      0x6bc bl2/mbedcrypto/library/libmbedcrypto.a(sha256.o)
                0x000000000c005f98                mbedtls_internal_sha256_process
 .text.mbedtls_sha256_update
                0x000000000c006654       0x7e bl2/mbedcrypto/library/libmbedcrypto.a(sha256.o)
                0x000000000c006654                mbedtls_sha256_update
 .text.mbedtls_sha256_finish
                0x000000000c0066d2      0x128 bl2/mbedcrypto/library/libmbedcrypto.a(sha256.o)
                0x000000000c0066d2                mbedtls_sha256_finish
 *fill*         0x000000000c0067fa        0x2 
 .text.p256_to_psa_error
                0x000000000c0067fc       0x18 bl2/mbedcrypto/3rdparty/p256-m/libbl2_p256m.a(p256-m_driver_entrypoints.o)
 .text.p256_transparent_verify_hash
                0x000000000c006814       0x52 bl2/mbedcrypto/3rdparty/p256-m/libbl2_p256m.a(p256-m_driver_entrypoints.o)
                0x000000000c006814                p256_transparent_verify_hash
 .text.u256_set32
                0x000000000c006866       0x12 bl2/mbedcrypto/3rdparty/p256-m/libbl2_p256m.a(p256-m.o)
 .text.u256_add
                0x000000000c006878       0x2c bl2/mbedcrypto/3rdparty/p256-m/libbl2_p256m.a(p256-m.o)
 .text.u256_sub
                0x000000000c0068a4       0x2e bl2/mbedcrypto/3rdparty/p256-m/libbl2_p256m.a(p256-m.o)
 .text.u256_cmov
                0x000000000c0068d2       0x22 bl2/mbedcrypto/3rdparty/p256-m/libbl2_p256m.a(p256-m.o)
 .text.u256_diff
                0x000000000c0068f4       0x1e bl2/mbedcrypto/3rdparty/p256-m/libbl2_p256m.a(p256-m.o)
 .text.u256_diff0
                0x000000000c006912       0x16 bl2/mbedcrypto/3rdparty/p256-m/libbl2_p256m.a(p256-m.o)
 .text.u288_muladd
                0x000000000c006928       0x62 bl2/mbedcrypto/3rdparty/p256-m/libbl2_p256m.a(p256-m.o)
 .text.u256_from_bytes
                0x000000000c00698a       0x2a bl2/mbedcrypto/3rdparty/p256-m/libbl2_p256m.a(p256-m.o)
 .text.m256_add
                0x000000000c0069b4       0x2a bl2/mbedcrypto/3rdparty/p256-m/libbl2_p256m.a(p256-m.o)
 .text.m256_mul
                0x000000000c0069de       0x84 bl2/mbedcrypto/3rdparty/p256-m/libbl2_p256m.a(p256-m.o)
 *fill*         0x000000000c006a62        0x2 
 .text.m256_mul_p
                0x000000000c006a64        0xc bl2/mbedcrypto/3rdparty/p256-m/libbl2_p256m.a(p256-m.o)
 .text.m256_prep
                0x000000000c006a70        0xc bl2/mbedcrypto/3rdparty/p256-m/libbl2_p256m.a(p256-m.o)
 .text.m256_done
                0x000000000c006a7c       0x20 bl2/mbedcrypto/3rdparty/p256-m/libbl2_p256m.a(p256-m.o)
 .text.m256_set32
                0x000000000c006a9c       0x16 bl2/mbedcrypto/3rdparty/p256-m/libbl2_p256m.a(p256-m.o)
 .text.m256_inv
                0x000000000c006ab2       0x60 bl2/mbedcrypto/3rdparty/p256-m/libbl2_p256m.a(p256-m.o)
 *fill*         0x000000000c006b12        0x2 
 .text.point_to_affine
                0x000000000c006b14       0x44 bl2/mbedcrypto/3rdparty/p256-m/libbl2_p256m.a(p256-m.o)
 .text.scalar_from_bytes
                0x000000000c006b58       0x40 bl2/mbedcrypto/3rdparty/p256-m/libbl2_p256m.a(p256-m.o)
 .text.ecdsa_m256_mod_n
                0x000000000c006b98       0x24 bl2/mbedcrypto/3rdparty/p256-m/libbl2_p256m.a(p256-m.o)
 .text.ecdsa_m256_from_hash
                0x000000000c006bbc       0x54 bl2/mbedcrypto/3rdparty/p256-m/libbl2_p256m.a(p256-m.o)
 .text.m256_sub_p
                0x000000000c006c10       0x28 bl2/mbedcrypto/3rdparty/p256-m/libbl2_p256m.a(p256-m.o)
 .text.point_add
                0x000000000c006c38       0xc2 bl2/mbedcrypto/3rdparty/p256-m/libbl2_p256m.a(p256-m.o)
 *fill*         0x000000000c006cfa        0x2 
 .text.point_from_bytes
                0x000000000c006cfc       0xa8 bl2/mbedcrypto/3rdparty/p256-m/libbl2_p256m.a(p256-m.o)
 .text.point_double
                0x000000000c006da4       0xe8 bl2/mbedcrypto/3rdparty/p256-m/libbl2_p256m.a(p256-m.o)
 .text.scalar_mult
                0x000000000c006e8c       0xd8 bl2/mbedcrypto/3rdparty/p256-m/libbl2_p256m.a(p256-m.o)
 .text.p256_ecdsa_verify
                0x000000000c006f64      0x16c bl2/mbedcrypto/3rdparty/p256-m/libbl2_p256m.a(p256-m.o)
                0x000000000c006f64                p256_ecdsa_verify
 .text          0x000000000c0070d0       0x38 /home/tmdals010126/zephyr-sdk-0.17.0/arm-zephyr-eabi/bin/../lib/gcc/arm-zephyr-eabi/12.2.0/thumb/v8-m.main/nofp/libgcc.a(cmse_nonsecure_call.o)
                0x000000000c0070d0                __gnu_cmse_nonsecure_call
 .text          0x000000000c007108       0x30 /home/tmdals010126/zephyr-sdk-0.17.0/arm-zephyr-eabi/bin/../lib/gcc/arm-zephyr-eabi/12.2.0/thumb/v8-m.main/nofp/libgcc.a(_aeabi_uldivmod.o)
                0x000000000c007108                __aeabi_uldivmod
 .text          0x000000000c007138      0x29c /home/tmdals010126/zephyr-sdk-0.17.0/arm-zephyr-eabi/bin/../lib/gcc/arm-zephyr-eabi/12.2.0/thumb/v8-m.main/nofp/libgcc.a(_udivmoddi4.o)
                0x000000000c007138                __udivmoddi4
 .text          0x000000000c0073d4        0x4 /home/tmdals010126/zephyr-sdk-0.17.0/arm-zephyr-eabi/bin/../lib/gcc/arm-zephyr-eabi/12.2.0/thumb/v8-m.main/nofp/libgcc.a(_dvmd_tls.o)
                0x000000000c0073d4                __aeabi_ldiv0
                0x000000000c0073d4                __aeabi_idiv0
 .text.calloc   0x000000000c0073d8       0x10 /home/tmdals010126/zephyr-sdk-0.17.0/arm-zephyr-eabi/bin/../lib/gcc/arm-zephyr-eabi/12.2.0/../../../../arm-zephyr-eabi/lib/thumb/v8-m.main/nofp/libc_nano.a(lib_a-calloc.o)
                0x000000000c0073d8                calloc
 .text.exit     0x000000000c0073e8       0x28 /home/tmdals010126/zephyr-sdk-0.17.0/arm-zephyr-eabi/bin/../lib/gcc/arm-zephyr-eabi/12.2.0/../../../../arm-zephyr-eabi/lib/thumb/v8-m.main/nofp/libc_nano.a(lib_a-exit.o)
                0x000000000c0073e8                exit
 .text.__libc_init_array
                0x000000000c007410       0x48 /home/tmdals010126/zephyr-sdk-0.17.0/arm-zephyr-eabi/bin/../lib/gcc/arm-zephyr-eabi/12.2.0/../../../../arm-zephyr-eabi/lib/thumb/v8-m.main/nofp/libc_nano.a(lib_a-init.o)
                0x000000000c007410                __libc_init_array
 .text.free     0x000000000c007458       0x10 /home/tmdals010126/zephyr-sdk-0.17.0/arm-zephyr-eabi/bin/../lib/gcc/arm-zephyr-eabi/12.2.0/../../../../arm-zephyr-eabi/lib/thumb/v8-m.main/nofp/libc_nano.a(lib_a-malloc.o)
                0x000000000c007458                free
 .text.memcmp   0x000000000c007468       0x20 /home/tmdals010126/zephyr-sdk-0.17.0/arm-zephyr-eabi/bin/../lib/gcc/arm-zephyr-eabi/12.2.0/../../../../arm-zephyr-eabi/lib/thumb/v8-m.main/nofp/libc_nano.a(lib_a-memcmp.o)
                0x000000000c007468                memcmp
 .text.memcpy   0x000000000c007488       0x1a /home/tmdals010126/zephyr-sdk-0.17.0/arm-zephyr-eabi/bin/../lib/gcc/arm-zephyr-eabi/12.2.0/../../../../arm-zephyr-eabi/lib/thumb/v8-m.main/nofp/libc_nano.a(lib_a-memcpy-stub.o)
                0x000000000c007488                memcpy
 .text.memset   0x000000000c0074a2       0x10 /home/tmdals010126/zephyr-sdk-0.17.0/arm-zephyr-eabi/bin/../lib/gcc/arm-zephyr-eabi/12.2.0/../../../../arm-zephyr-eabi/lib/thumb/v8-m.main/nofp/libc_nano.a(lib_a-memset.o)
                0x000000000c0074a2                memset
 .text._calloc_r
                0x000000000c0074b2       0x1c /home/tmdals010126/zephyr-sdk-0.17.0/arm-zephyr-eabi/bin/../lib/gcc/arm-zephyr-eabi/12.2.0/../../../../arm-zephyr-eabi/lib/thumb/v8-m.main/nofp/libc_nano.a(lib_a-nano-callocr.o)
                0x000000000c0074b2                _calloc_r
 *fill*         0x000000000c0074ce        0x2 
 .text._free_r  0x000000000c0074d0       0x94 /home/tmdals010126/zephyr-sdk-0.17.0/arm-zephyr-eabi/bin/../lib/gcc/arm-zephyr-eabi/12.2.0/../../../../arm-zephyr-eabi/lib/thumb/v8-m.main/nofp/libc_nano.a(lib_a-nano-freer.o)
                0x000000000c0074d0                _free_r
 .text._malloc_r
                0x000000000c007564       0xb4 /home/tmdals010126/zephyr-sdk-0.17.0/arm-zephyr-eabi/bin/../lib/gcc/arm-zephyr-eabi/12.2.0/../../../../arm-zephyr-eabi/lib/thumb/v8-m.main/nofp/libc_nano.a(lib_a-nano-mallocr.o)
                0x000000000c007564                _malloc_r
 .text.printf   0x000000000c007618       0x30 /home/tmdals010126/zephyr-sdk-0.17.0/arm-zephyr-eabi/bin/../lib/gcc/arm-zephyr-eabi/12.2.0/../../../../arm-zephyr-eabi/lib/thumb/v8-m.main/nofp/libc_nano.a(lib_a-printf.o)
                0x000000000c007618                printf
                0x000000000c007618                iprintf
 .text._sbrk_r  0x000000000c007648       0x20 /home/tmdals010126/zephyr-sdk-0.17.0/arm-zephyr-eabi/bin/../lib/gcc/arm-zephyr-eabi/12.2.0/../../../../arm-zephyr-eabi/lib/thumb/v8-m.main/nofp/libc_nano.a(lib_a-sbrkr.o)
                0x000000000c007648                _sbrk_r
 .text.std      0x000000000c007668       0x48 /home/tmdals010126/zephyr-sdk-0.17.0/arm-zephyr-eabi/bin/../lib/gcc/arm-zephyr-eabi/12.2.0/../../../../arm-zephyr-eabi/lib/thumb/v8-m.main/nofp/libc_nano.a(lib_a-findfp.o)
 .text._cleanup_r
                0x000000000c0076b0        0xc /home/tmdals010126/zephyr-sdk-0.17.0/arm-zephyr-eabi/bin/../lib/gcc/arm-zephyr-eabi/12.2.0/../../../../arm-zephyr-eabi/lib/thumb/v8-m.main/nofp/libc_nano.a(lib_a-findfp.o)
                0x000000000c0076b0                _cleanup_r
 .text.__sfmoreglue
                0x000000000c0076bc       0x2c /home/tmdals010126/zephyr-sdk-0.17.0/arm-zephyr-eabi/bin/../lib/gcc/arm-zephyr-eabi/12.2.0/../../../../arm-zephyr-eabi/lib/thumb/v8-m.main/nofp/libc_nano.a(lib_a-findfp.o)
                0x000000000c0076bc                __sfmoreglue
 .text.__sfp_lock_acquire
                0x000000000c0076e8        0xc /home/tmdals010126/zephyr-sdk-0.17.0/arm-zephyr-eabi/bin/../lib/gcc/arm-zephyr-eabi/12.2.0/../../../../arm-zephyr-eabi/lib/thumb/v8-m.main/nofp/libc_nano.a(lib_a-findfp.o)
                0x000000000c0076e8                __sfp_lock_acquire
 .text.__sfp_lock_release
                0x000000000c0076f4        0xc /home/tmdals010126/zephyr-sdk-0.17.0/arm-zephyr-eabi/bin/../lib/gcc/arm-zephyr-eabi/12.2.0/../../../../arm-zephyr-eabi/lib/thumb/v8-m.main/nofp/libc_nano.a(lib_a-findfp.o)
                0x000000000c0076f4                __sfp_lock_release
 .text.__sinit_lock_acquire
                0x000000000c007700        0xc /home/tmdals010126/zephyr-sdk-0.17.0/arm-zephyr-eabi/bin/../lib/gcc/arm-zephyr-eabi/12.2.0/../../../../arm-zephyr-eabi/lib/thumb/v8-m.main/nofp/libc_nano.a(lib_a-findfp.o)
                0x000000000c007700                __sinit_lock_acquire
 .text.__sinit_lock_release
                0x000000000c00770c        0xc /home/tmdals010126/zephyr-sdk-0.17.0/arm-zephyr-eabi/bin/../lib/gcc/arm-zephyr-eabi/12.2.0/../../../../arm-zephyr-eabi/lib/thumb/v8-m.main/nofp/libc_nano.a(lib_a-findfp.o)
                0x000000000c00770c                __sinit_lock_release
 .text.__sinit  0x000000000c007718       0x70 /home/tmdals010126/zephyr-sdk-0.17.0/arm-zephyr-eabi/bin/../lib/gcc/arm-zephyr-eabi/12.2.0/../../../../arm-zephyr-eabi/lib/thumb/v8-m.main/nofp/libc_nano.a(lib_a-findfp.o)
                0x000000000c007718                __sinit
 .text.__sfp    0x000000000c007788       0x8c /home/tmdals010126/zephyr-sdk-0.17.0/arm-zephyr-eabi/bin/../lib/gcc/arm-zephyr-eabi/12.2.0/../../../../arm-zephyr-eabi/lib/thumb/v8-m.main/nofp/libc_nano.a(lib_a-findfp.o)
                0x000000000c007788                __sfp
 .text._fwalk_reent
                0x000000000c007814       0x3e /home/tmdals010126/zephyr-sdk-0.17.0/arm-zephyr-eabi/bin/../lib/gcc/arm-zephyr-eabi/12.2.0/../../../../arm-zephyr-eabi/lib/thumb/v8-m.main/nofp/libc_nano.a(lib_a-fwalk.o)
                0x000000000c007814                _fwalk_reent
 .text.__retarget_lock_init_recursive
                0x000000000c007852        0x2 /home/tmdals010126/zephyr-sdk-0.17.0/arm-zephyr-eabi/bin/../lib/gcc/arm-zephyr-eabi/12.2.0/../../../../arm-zephyr-eabi/lib/thumb/v8-m.main/nofp/libc_nano.a(lib_a-lock.o)
                0x000000000c007852                __retarget_lock_init_recursive
 .text.__retarget_lock_acquire_recursive
                0x000000000c007854        0x2 /home/tmdals010126/zephyr-sdk-0.17.0/arm-zephyr-eabi/bin/../lib/gcc/arm-zephyr-eabi/12.2.0/../../../../arm-zephyr-eabi/lib/thumb/v8-m.main/nofp/libc_nano.a(lib_a-lock.o)
                0x000000000c007854                __retarget_lock_acquire_recursive
 .text.__retarget_lock_release_recursive
                0x000000000c007856        0x2 /home/tmdals010126/zephyr-sdk-0.17.0/arm-zephyr-eabi/bin/../lib/gcc/arm-zephyr-eabi/12.2.0/../../../../arm-zephyr-eabi/lib/thumb/v8-m.main/nofp/libc_nano.a(lib_a-lock.o)
                0x000000000c007856                __retarget_lock_release_recursive
 .text.__malloc_lock
                0x000000000c007858        0xc /home/tmdals010126/zephyr-sdk-0.17.0/arm-zephyr-eabi/bin/../lib/gcc/arm-zephyr-eabi/12.2.0/../../../../arm-zephyr-eabi/lib/thumb/v8-m.main/nofp/libc_nano.a(lib_a-mlock.o)
                0x000000000c007858                __malloc_lock
 .text.__malloc_unlock
                0x000000000c007864        0xc /home/tmdals010126/zephyr-sdk-0.17.0/arm-zephyr-eabi/bin/../lib/gcc/arm-zephyr-eabi/12.2.0/../../../../arm-zephyr-eabi/lib/thumb/v8-m.main/nofp/libc_nano.a(lib_a-mlock.o)
                0x000000000c007864                __malloc_unlock
 .text.__sfputc_r
                0x000000000c007870       0x2a /home/tmdals010126/zephyr-sdk-0.17.0/arm-zephyr-eabi/bin/../lib/gcc/arm-zephyr-eabi/12.2.0/../../../../arm-zephyr-eabi/lib/thumb/v8-m.main/nofp/libc_nano.a(lib_a-nano-vfprintf.o)
 .text.__sfputs_r
                0x000000000c00789a       0x24 /home/tmdals010126/zephyr-sdk-0.17.0/arm-zephyr-eabi/bin/../lib/gcc/arm-zephyr-eabi/12.2.0/../../../../arm-zephyr-eabi/lib/thumb/v8-m.main/nofp/libc_nano.a(lib_a-nano-vfprintf.o)
                0x000000000c00789a                __sfputs_r
 *fill*         0x000000000c0078be        0x2 
 .text._vfprintf_r
                0x000000000c0078c0      0x258 /home/tmdals010126/zephyr-sdk-0.17.0/arm-zephyr-eabi/bin/../lib/gcc/arm-zephyr-eabi/12.2.0/../../../../arm-zephyr-eabi/lib/thumb/v8-m.main/nofp/libc_nano.a(lib_a-nano-vfprintf.o)
                0x000000000c0078c0                _vfiprintf_r
                0x000000000c0078c0                _vfprintf_r
 .text._printf_common
                0x000000000c007b18       0xe4 /home/tmdals010126/zephyr-sdk-0.17.0/arm-zephyr-eabi/bin/../lib/gcc/arm-zephyr-eabi/12.2.0/../../../../arm-zephyr-eabi/lib/thumb/v8-m.main/nofp/libc_nano.a(lib_a-nano-vfprintf_i.o)
                0x000000000c007b18                _printf_common
 .text._printf_i
                0x000000000c007bfc      0x25c /home/tmdals010126/zephyr-sdk-0.17.0/arm-zephyr-eabi/bin/../lib/gcc/arm-zephyr-eabi/12.2.0/../../../../arm-zephyr-eabi/lib/thumb/v8-m.main/nofp/libc_nano.a(lib_a-nano-vfprintf_i.o)
                0x000000000c007bfc                _printf_i
 .text.__sread  0x000000000c007e58       0x22 /home/tmdals010126/zephyr-sdk-0.17.0/arm-zephyr-eabi/bin/../lib/gcc/arm-zephyr-eabi/12.2.0/../../../../arm-zephyr-eabi/lib/thumb/v8-m.main/nofp/libc_nano.a(lib_a-stdio.o)
                0x000000000c007e58                __sread
 .text.__swrite
                0x000000000c007e7a       0x38 /home/tmdals010126/zephyr-sdk-0.17.0/arm-zephyr-eabi/bin/../lib/gcc/arm-zephyr-eabi/12.2.0/../../../../arm-zephyr-eabi/lib/thumb/v8-m.main/nofp/libc_nano.a(lib_a-stdio.o)
                0x000000000c007e7a                __swrite
 .text.__sseek  0x000000000c007eb2       0x24 /home/tmdals010126/zephyr-sdk-0.17.0/arm-zephyr-eabi/bin/../lib/gcc/arm-zephyr-eabi/12.2.0/../../../../arm-zephyr-eabi/lib/thumb/v8-m.main/nofp/libc_nano.a(lib_a-stdio.o)
                0x000000000c007eb2                __sseek
 .text.__sclose
                0x000000000c007ed6        0x8 /home/tmdals010126/zephyr-sdk-0.17.0/arm-zephyr-eabi/bin/../lib/gcc/arm-zephyr-eabi/12.2.0/../../../../arm-zephyr-eabi/lib/thumb/v8-m.main/nofp/libc_nano.a(lib_a-stdio.o)
                0x000000000c007ed6                __sclose
 *fill*         0x000000000c007ede        0x2 
 .text.__swbuf_r
                0x000000000c007ee0       0xa4 /home/tmdals010126/zephyr-sdk-0.17.0/arm-zephyr-eabi/bin/../lib/gcc/arm-zephyr-eabi/12.2.0/../../../../arm-zephyr-eabi/lib/thumb/v8-m.main/nofp/libc_nano.a(lib_a-wbuf.o)
                0x000000000c007ee0                __swbuf_r
 .text._write_r
                0x000000000c007f84       0x24 /home/tmdals010126/zephyr-sdk-0.17.0/arm-zephyr-eabi/bin/../lib/gcc/arm-zephyr-eabi/12.2.0/../../../../arm-zephyr-eabi/lib/thumb/v8-m.main/nofp/libc_nano.a(lib_a-writer.o)
                0x000000000c007f84                _write_r
 .text.__swsetup_r
                0x000000000c007fa8       0xd8 /home/tmdals010126/zephyr-sdk-0.17.0/arm-zephyr-eabi/bin/../lib/gcc/arm-zephyr-eabi/12.2.0/../../../../arm-zephyr-eabi/lib/thumb/v8-m.main/nofp/libc_nano.a(lib_a-wsetup.o)
                0x000000000c007fa8                __swsetup_r
 .text._close_r
                0x000000000c008080       0x20 /home/tmdals010126/zephyr-sdk-0.17.0/arm-zephyr-eabi/bin/../lib/gcc/arm-zephyr-eabi/12.2.0/../../../../arm-zephyr-eabi/lib/thumb/v8-m.main/nofp/libc_nano.a(lib_a-closer.o)
                0x000000000c008080                _close_r
 .text.__sflush_r
                0x000000000c0080a0       0xfe /home/tmdals010126/zephyr-sdk-0.17.0/arm-zephyr-eabi/bin/../lib/gcc/arm-zephyr-eabi/12.2.0/../../../../arm-zephyr-eabi/lib/thumb/v8-m.main/nofp/libc_nano.a(lib_a-fflush.o)
                0x000000000c0080a0                __sflush_r
 *fill*         0x000000000c00819e        0x2 
 .text._fflush_r
                0x000000000c0081a0       0x78 /home/tmdals010126/zephyr-sdk-0.17.0/arm-zephyr-eabi/bin/../lib/gcc/arm-zephyr-eabi/12.2.0/../../../../arm-zephyr-eabi/lib/thumb/v8-m.main/nofp/libc_nano.a(lib_a-fflush.o)
                0x000000000c0081a0                _fflush_r
 .text._lseek_r
                0x000000000c008218       0x24 /home/tmdals010126/zephyr-sdk-0.17.0/arm-zephyr-eabi/bin/../lib/gcc/arm-zephyr-eabi/12.2.0/../../../../arm-zephyr-eabi/lib/thumb/v8-m.main/nofp/libc_nano.a(lib_a-lseekr.o)
                0x000000000c008218                _lseek_r
 .text.__swhatbuf_r
                0x000000000c00823c       0x4a /home/tmdals010126/zephyr-sdk-0.17.0/arm-zephyr-eabi/bin/../lib/gcc/arm-zephyr-eabi/12.2.0/../../../../arm-zephyr-eabi/lib/thumb/v8-m.main/nofp/libc_nano.a(lib_a-makebuf.o)
                0x000000000c00823c                __swhatbuf_r
 *fill*         0x000000000c008286        0x2 
 .text.__smakebuf_r
                0x000000000c008288       0x80 /home/tmdals010126/zephyr-sdk-0.17.0/arm-zephyr-eabi/bin/../lib/gcc/arm-zephyr-eabi/12.2.0/../../../../arm-zephyr-eabi/lib/thumb/v8-m.main/nofp/libc_nano.a(lib_a-makebuf.o)
                0x000000000c008288                __smakebuf_r
 .text.memchr   0x000000000c008308       0x1c /home/tmdals010126/zephyr-sdk-0.17.0/arm-zephyr-eabi/bin/../lib/gcc/arm-zephyr-eabi/12.2.0/../../../../arm-zephyr-eabi/lib/thumb/v8-m.main/nofp/libc_nano.a(lib_a-memchr-stub.o)
                0x000000000c008308                memchr
 .text._read_r  0x000000000c008324       0x24 /home/tmdals010126/zephyr-sdk-0.17.0/arm-zephyr-eabi/bin/../lib/gcc/arm-zephyr-eabi/12.2.0/../../../../arm-zephyr-eabi/lib/thumb/v8-m.main/nofp/libc_nano.a(lib_a-readr.o)
                0x000000000c008324                _read_r
 .text._fstat_r
                0x000000000c008348       0x24 /home/tmdals010126/zephyr-sdk-0.17.0/arm-zephyr-eabi/bin/../lib/gcc/arm-zephyr-eabi/12.2.0/../../../../arm-zephyr-eabi/lib/thumb/v8-m.main/nofp/libc_nano.a(lib_a-fstatr.o)
                0x000000000c008348                _fstat_r
 .text._isatty_r
                0x000000000c00836c       0x20 /home/tmdals010126/zephyr-sdk-0.17.0/arm-zephyr-eabi/bin/../lib/gcc/arm-zephyr-eabi/12.2.0/../../../../arm-zephyr-eabi/lib/thumb/v8-m.main/nofp/libc_nano.a(lib_a-isattyr.o)
                0x000000000c00836c                _isatty_r
 .text._sbrk    0x000000000c00838c       0x20 /home/tmdals010126/zephyr-sdk-0.17.0/arm-zephyr-eabi/bin/../lib/gcc/arm-zephyr-eabi/12.2.0/../../../../arm-zephyr-eabi/lib/thumb/v8-m.main/nofp/libnosys.a(sbrk.o)
                0x000000000c00838c                _sbrk
 .text._exit    0x000000000c0083ac        0x4 /home/tmdals010126/zephyr-sdk-0.17.0/arm-zephyr-eabi/bin/../lib/gcc/arm-zephyr-eabi/12.2.0/../../../../arm-zephyr-eabi/lib/thumb/v8-m.main/nofp/libnosys.a(_exit.o)
                0x000000000c0083ac                _exit
                0x000000000c0083b0                . = ALIGN (0x4)
                0x000000000c0083b0                PROVIDE (__preinit_array_start = .)
 *(.preinit_array)
                0x000000000c0083b0                PROVIDE (__preinit_array_end = .)
                0x000000000c0083b0                . = ALIGN (0x4)
                0x000000000c0083b0                PROVIDE (__init_array_start = .)
 *(SORT_BY_NAME(.init_array.*))
 *(.init_array)
 .init_array    0x000000000c0083b0        0x4 /home/tmdals010126/zephyr-sdk-0.17.0/arm-zephyr-eabi/bin/../lib/gcc/arm-zephyr-eabi/12.2.0/thumb/v8-m.main/nofp/crtbegin.o
                0x000000000c0083b4                PROVIDE (__init_array_end = .)
                0x000000000c0083b4                . = ALIGN (0x4)
                [!provide]                        PROVIDE (__fini_array_start = .)
 *(SORT_BY_NAME(.fini_array.*))
 *(.fini_array)
 .fini_array    0x000000000c0083b4        0x4 /home/tmdals010126/zephyr-sdk-0.17.0/arm-zephyr-eabi/bin/../lib/gcc/arm-zephyr-eabi/12.2.0/thumb/v8-m.main/nofp/crtbegin.o
                [!provide]                        PROVIDE (__fini_array_end = .)
                0x000000000c0083b8                . = ALIGN (0x4)
                0x000000000c0083b8                __copy_table_start__ = .
                0x000000000c0083b8        0x4 LONG 0xc0093e8 __etext
                0x000000000c0083bc        0x4 LONG 0x30030000 __data_start__
                0x000000000c0083c0        0x4 LONG 0x4b ((__data_end__ - __data_start__) / 0x4)
                0x000000000c0083c4        0x4 LONG 0x0 DEFINED (__etext2)?__etext2:0x0
                0x000000000c0083c8        0x4 LONG 0x0 DEFINED (__data2_start__)?__data2_start__:0x0
                0x000000000c0083cc        0x4 LONG 0x0 DEFINED (__data2_start__)?((__data2_end__ - __data2_start__) / 0x4):0x0
                0x000000000c0083d0                __copy_table_end__ = .
                0x000000000c0083d0                . = ALIGN (0x4)
                0x000000000c0083d0                __zero_table_start__ = .
                0x000000000c0083d0        0x4 LONG 0x3003012c __bss_start__
                0x000000000c0083d4        0x4 LONG 0xed3 ((__bss_end__ - __bss_start__) / 0x4)
                0x000000000c0083d8        0x4 LONG 0x0 DEFINED (__bss2_start__)?__bss2_start__:0x0
                0x000000000c0083dc        0x4 LONG 0x0 DEFINED (__bss2_start__)?((__bss2_end__ - __bss2_start__) / 0x4):0x0
                0x000000000c0083e0                __zero_table_end__ = .
 *(.init)
 .init          0x000000000c0083e0        0x4 /home/tmdals010126/zephyr-sdk-0.17.0/arm-zephyr-eabi/bin/../lib/gcc/arm-zephyr-eabi/12.2.0/thumb/v8-m.main/nofp/crti.o
                0x000000000c0083e0                _init
 .init          0x000000000c0083e4        0x8 /home/tmdals010126/zephyr-sdk-0.17.0/arm-zephyr-eabi/bin/../lib/gcc/arm-zephyr-eabi/12.2.0/thumb/v8-m.main/nofp/crtn.o
 *(.fini)
 .fini          0x000000000c0083ec        0x4 /home/tmdals010126/zephyr-sdk-0.17.0/arm-zephyr-eabi/bin/../lib/gcc/arm-zephyr-eabi/12.2.0/thumb/v8-m.main/nofp/crti.o
                0x000000000c0083ec                _fini
 .fini          0x000000000c0083f0        0x8 /home/tmdals010126/zephyr-sdk-0.17.0/arm-zephyr-eabi/bin/../lib/gcc/arm-zephyr-eabi/12.2.0/thumb/v8-m.main/nofp/crtn.o
 *crtbegin.o(.ctors)
 *crtbegin?.o(.ctors)
 *(EXCLUDE_FILE(*crtend.o *crtend?.o) .ctors)
 *(SORT_BY_NAME(.ctors.*))
 *(.ctors)
 *crtbegin.o(.dtors)
 *crtbegin?.o(.dtors)
 *(EXCLUDE_FILE(*crtend.o *crtend?.o) .dtors)
 *(SORT_BY_NAME(.dtors.*))
 *(.dtors)
 *(.rodata*)
 .rodata.data_width_byte
                0x000000000c0083f8        0xc bl2/CMakeFiles/bl2.dir/src/flash_map.o
 .rodata.flash_map_entry_num
                0x000000000c008404        0x4 bl2/CMakeFiles/bl2.dir/src/default_flash_map.o
                0x000000000c008404                flash_map_entry_num
 .rodata.flash_map
                0x000000000c008408       0x40 bl2/CMakeFiles/bl2.dir/src/default_flash_map.o
                0x000000000c008408                flash_map
 .rodata.tfm_plat_provisioning_check_for_dummy_keys.str1.1
                0x000000000c008448       0x6c bl2/CMakeFiles/bl2.dir/src/provisioning.o
 .rodata.tfm_plat_provisioning_perform.str1.1
                0x000000000c0084b4       0x5b bl2/CMakeFiles/bl2.dir/src/provisioning.o
 .rodata.bl2_assembly_and_test_prov_data
                0x000000000c00850f       0x8c bl2/CMakeFiles/bl2.dir/src/provisioning.o
 .rodata.main.str1.1
                0x000000000c00859b      0x210 bl2/CMakeFiles/bl2.dir/ext/mcuboot/bl2_main.o
 *fill*         0x000000000c0087ab        0x1 
 .rodata.bootutil_key_cnt
                0x000000000c0087ac        0x4 bl2/CMakeFiles/bl2.dir/ext/mcuboot/keys.o
                0x000000000c0087ac                bootutil_key_cnt
 .rodata.flash_device_base.str1.1
                0x000000000c0087b0       0x29 bl2/CMakeFiles/bl2.dir/ext/mcuboot/flash_map_extended.o
 .rodata.flash_area_get_sectors.str1.1
                0x000000000c0087d9       0x68 bl2/CMakeFiles/bl2.dir/ext/mcuboot/flash_map_legacy.o
 .rodata.boot_validate_slot.isra.0.str1.1
                0x000000000c008841       0x3d bl2/ext/mcuboot/bootutil/libbootutil.a(loader.o)
 .rodata.context_boot_go.str1.1
                0x000000000c00887e      0x224 bl2/ext/mcuboot/bootutil/libbootutil.a(loader.o)
 .rodata.boot_slots_compatible.str1.1
                0x000000000c008aa2       0x9d bl2/ext/mcuboot/bootutil/libbootutil.a(swap_scratch.o)
 .rodata.boot_swap_type_multi.str1.1
                0x000000000c008b3f       0xc1 bl2/ext/mcuboot/bootutil/libbootutil.a(bootutil_public.o)
 .rodata.boot_swap_tables
                0x000000000c008c00       0x12 bl2/ext/mcuboot/bootutil/libbootutil.a(bootutil_public.o)
 .rodata.boot_img_magic
                0x000000000c008c12       0x10 bl2/ext/mcuboot/bootutil/libbootutil.a(bootutil_public.o)
                0x000000000c008c12                boot_img_magic
 .rodata.allowed_unprot_tlvs
                0x000000000c008c22       0x1e bl2/ext/mcuboot/bootutil/libbootutil.a(image_validate.o)
 .rodata.MSIRangeTable
                0x000000000c008c40       0x40 platform/libplatform_bl2.a(system_stm32l5xx.o)
                0x000000000c008c40                MSIRangeTable
 .rodata.APBPrescTable
                0x000000000c008c80        0x8 platform/libplatform_bl2.a(system_stm32l5xx.o)
                0x000000000c008c80                APBPrescTable
 .rodata.AHBPrescTable
                0x000000000c008c88       0x10 platform/libplatform_bl2.a(system_stm32l5xx.o)
                0x000000000c008c88                AHBPrescTable
 .rodata.boot_platform_init.str1.1
                0x000000000c008c98       0x84 platform/libplatform_bl2.a(boot_hal_bl2.o)
 .rodata.TFM_LL_SECU_CheckStaticProtections.str1.1
                0x000000000c008d1c      0x37a platform/libplatform_bl2.a(tfm_low_level_security.o)
 *fill*         0x000000000c009096        0x2 
 .rodata.TFM_Driver_FLASH0
                0x000000000c009098       0x2c platform/libplatform_bl2.a(low_level_flash.o)
                0x000000000c009098                TFM_Driver_FLASH0
 .rodata.ARM_FLASH0_DEV_DATA
                0x000000000c0090c4       0x18 platform/libplatform_bl2.a(low_level_flash.o)
 .rodata.DriverVersion
                0x000000000c0090dc        0x4 platform/libplatform_bl2.a(low_level_flash.o)
 .rodata.data_width_byte
                0x000000000c0090e0        0xc platform/libplatform_bl2.a(flash_otp_nv_counters_backend.o)
 .rodata.Driver_USART0
                0x000000000c0090ec       0x38 platform/libplatform_bl2.a(low_level_com.o)
                0x000000000c0090ec                Driver_USART0
 .rodata.DriverVersion
                0x000000000c009124        0x4 platform/libplatform_bl2.a(low_level_com.o)
 .rodata.UARTPrescTable
                0x000000000c009128       0x18 platform/libplatform_bl2.a(stm32l5xx_hal_uart.o)
                0x000000000c009128                UARTPrescTable
 .rodata.CSWTCH.19
                0x000000000c009140       0x10 bl2/mbedcrypto/library/libmbedcrypto.a(psa_crypto_hash.o)
 .rodata.K      0x000000000c009150      0x100 bl2/mbedcrypto/library/libmbedcrypto.a(sha256.o)
 .rodata.CSWTCH.5
                0x000000000c009250        0xa bl2/mbedcrypto/3rdparty/p256-m/libbl2_p256m.a(p256-m_driver_entrypoints.o)
 *fill*         0x000000000c00925a        0x2 
 .rodata.p256_gy
                0x000000000c00925c       0x20 bl2/mbedcrypto/3rdparty/p256-m/libbl2_p256m.a(p256-m.o)
 .rodata.p256_gx
                0x000000000c00927c       0x20 bl2/mbedcrypto/3rdparty/p256-m/libbl2_p256m.a(p256-m.o)
 .rodata.p256_b
                0x000000000c00929c       0x20 bl2/mbedcrypto/3rdparty/p256-m/libbl2_p256m.a(p256-m.o)
 .rodata.p256_n
                0x000000000c0092bc       0x44 bl2/mbedcrypto/3rdparty/p256-m/libbl2_p256m.a(p256-m.o)
 .rodata.p256_p
                0x000000000c009300       0x44 bl2/mbedcrypto/3rdparty/p256-m/libbl2_p256m.a(p256-m.o)
 .rodata._global_impure_ptr
                0x000000000c009344        0x4 /home/tmdals010126/zephyr-sdk-0.17.0/arm-zephyr-eabi/bin/../lib/gcc/arm-zephyr-eabi/12.2.0/../../../../arm-zephyr-eabi/lib/thumb/v8-m.main/nofp/libc_nano.a(lib_a-impure.o)
                0x000000000c009344                _global_impure_ptr
 .rodata.__sf_fake_stderr
                0x000000000c009348       0x20 /home/tmdals010126/zephyr-sdk-0.17.0/arm-zephyr-eabi/bin/../lib/gcc/arm-zephyr-eabi/12.2.0/../../../../arm-zephyr-eabi/lib/thumb/v8-m.main/nofp/libc_nano.a(lib_a-findfp.o)
                0x000000000c009348                __sf_fake_stderr
 .rodata.__sf_fake_stdout
                0x000000000c009368       0x20 /home/tmdals010126/zephyr-sdk-0.17.0/arm-zephyr-eabi/bin/../lib/gcc/arm-zephyr-eabi/12.2.0/../../../../arm-zephyr-eabi/lib/thumb/v8-m.main/nofp/libc_nano.a(lib_a-findfp.o)
                0x000000000c009368                __sf_fake_stdout
 .rodata.__sf_fake_stdin
                0x000000000c009388       0x20 /home/tmdals010126/zephyr-sdk-0.17.0/arm-zephyr-eabi/bin/../lib/gcc/arm-zephyr-eabi/12.2.0/../../../../arm-zephyr-eabi/lib/thumb/v8-m.main/nofp/libc_nano.a(lib_a-findfp.o)
                0x000000000c009388                __sf_fake_stdin
 .rodata._vfprintf_r.str1.1
                0x000000000c0093a8       0x11 /home/tmdals010126/zephyr-sdk-0.17.0/arm-zephyr-eabi/bin/../lib/gcc/arm-zephyr-eabi/12.2.0/../../../../arm-zephyr-eabi/lib/thumb/v8-m.main/nofp/libc_nano.a(lib_a-nano-vfprintf.o)
 .rodata._printf_i.str1.1
                0x000000000c0093b9       0x22 /home/tmdals010126/zephyr-sdk-0.17.0/arm-zephyr-eabi/bin/../lib/gcc/arm-zephyr-eabi/12.2.0/../../../../arm-zephyr-eabi/lib/thumb/v8-m.main/nofp/libc_nano.a(lib_a-nano-vfprintf_i.o)
 *(.eh_frame*)
 *fill*         0x000000000c0093db        0x1 
 .eh_frame      0x000000000c0093dc        0x0 /home/tmdals010126/zephyr-sdk-0.17.0/arm-zephyr-eabi/bin/../lib/gcc/arm-zephyr-eabi/12.2.0/thumb/v8-m.main/nofp/crtbegin.o
 .eh_frame      0x000000000c0093dc        0x4 /home/tmdals010126/zephyr-sdk-0.17.0/arm-zephyr-eabi/bin/../lib/gcc/arm-zephyr-eabi/12.2.0/thumb/v8-m.main/nofp/crtend.o

.glue_7         0x000000000c0093e0        0x0
 .glue_7        0x000000000c0093e0        0x0 linker stubs

.glue_7t        0x000000000c0093e0        0x0
 .glue_7t       0x000000000c0093e0        0x0 linker stubs

.vfp11_veneer   0x000000000c0093e0        0x0
 .vfp11_veneer  0x000000000c0093e0        0x0 linker stubs

.v4_bx          0x000000000c0093e0        0x0
 .v4_bx         0x000000000c0093e0        0x0 linker stubs

.iplt           0x000000000c0093e0        0x0
 .iplt          0x000000000c0093e0        0x0 /home/tmdals010126/zephyr-sdk-0.17.0/arm-zephyr-eabi/bin/../lib/gcc/arm-zephyr-eabi/12.2.0/thumb/v8-m.main/nofp/crtbegin.o

.ARM.extab
 *(.ARM.extab* .gnu.linkonce.armextab.*)
                0x000000000c0093e0                __exidx_start = .

.ARM.exidx      0x000000000c0093e0        0x8
 *(.ARM.exidx* .gnu.linkonce.armexidx.*)
 .ARM.exidx     0x000000000c0093e0        0x8 /home/tmdals010126/zephyr-sdk-0.17.0/arm-zephyr-eabi/bin/../lib/gcc/arm-zephyr-eabi/12.2.0/../../../../arm-zephyr-eabi/lib/thumb/v8-m.main/nofp/crt0.o
                                         0x10 (size before relaxing)
 .ARM.exidx     0x000000000c0093e8        0x0 /home/tmdals010126/zephyr-sdk-0.17.0/arm-zephyr-eabi/bin/../lib/gcc/arm-zephyr-eabi/12.2.0/thumb/v8-m.main/nofp/libgcc.a(_udivmoddi4.o)
                                          0x8 (size before relaxing)
                0x000000000c0093e8                __exidx_end = .
                0x000000000c0093e8                __etext = ALIGN (0x4)

.rel.dyn        0x000000000c0093e8        0x0
 .rel.iplt      0x000000000c0093e8        0x0 /home/tmdals010126/zephyr-sdk-0.17.0/arm-zephyr-eabi/bin/../lib/gcc/arm-zephyr-eabi/12.2.0/thumb/v8-m.main/nofp/crtbegin.o

.data           0x0000000030030000      0x12c load address 0x000000000c0093e8
                0x0000000030030000                __data_start__ = .
 *(vtable)
 *(.data*)
 .data.g_key_slot
                0x0000000030030000       0x28 bl2/CMakeFiles/bl2.dir/src/thin_psa_crypto_core.o
 .data.FIH_NO_BOOTABLE_IMAGE
                0x0000000030030028        0x4 bl2/ext/mcuboot/bootutil/libbootutil.a(fault_injection_hardening.o)
                0x0000000030030028                FIH_NO_BOOTABLE_IMAGE
 .data.FIH_FAILURE
                0x000000003003002c        0x4 bl2/ext/mcuboot/bootutil/libbootutil.a(fault_injection_hardening.o)
                0x000000003003002c                FIH_FAILURE
 .data.SystemCoreClock
                0x0000000030030030        0x4 platform/libplatform_bl2.a(system_stm32l5xx.o)
                0x0000000030030030                SystemCoreClock
 .data.uwTickPrio
                0x0000000030030034        0x4 platform/libplatform_bl2.a(stm32l5xx_hal.o)
                0x0000000030030034                uwTickPrio
 .data.pFlash   0x0000000030030038       0x1c platform/libplatform_bl2.a(stm32l5xx_hal_flash.o)
                0x0000000030030038                pFlash
 .data.FLASH0_DEV
                0x0000000030030054       0x1c platform/libplatform_bl2.a(low_level_device.o)
                0x0000000030030054                FLASH0_DEV
 .data.secure_vect
                0x0000000030030070       0x18 platform/libplatform_bl2.a(low_level_device.o)
 .data.write_vect
                0x0000000030030088       0x18 platform/libplatform_bl2.a(low_level_device.o)
 .data.erase_vect
                0x00000000300300a0       0x18 platform/libplatform_bl2.a(low_level_device.o)
 .data.mbedtls_exit
                0x00000000300300b8        0x4 bl2/mbedcrypto/library/libmbedcrypto.a(platform.o)
                0x00000000300300b8                mbedtls_exit
 .data.mbedtls_free_func
                0x00000000300300bc        0x4 bl2/mbedcrypto/library/libmbedcrypto.a(platform.o)
                0x00000000300300bc                mbedtls_free_func
 .data.mbedtls_calloc_func
                0x00000000300300c0        0x4 bl2/mbedcrypto/library/libmbedcrypto.a(platform.o)
                0x00000000300300c0                mbedtls_calloc_func
 .data.memset_func
                0x00000000300300c4        0x4 bl2/mbedcrypto/library/libmbedcrypto.a(platform_util.o)
                0x00000000300300c4                memset_func
 .data._impure_ptr
                0x00000000300300c8        0x4 /home/tmdals010126/zephyr-sdk-0.17.0/arm-zephyr-eabi/bin/../lib/gcc/arm-zephyr-eabi/12.2.0/../../../../arm-zephyr-eabi/lib/thumb/v8-m.main/nofp/libc_nano.a(lib_a-impure.o)
                0x00000000300300c8                _impure_ptr
 .data.impure_data
                0x00000000300300cc       0x60 /home/tmdals010126/zephyr-sdk-0.17.0/arm-zephyr-eabi/bin/../lib/gcc/arm-zephyr-eabi/12.2.0/../../../../arm-zephyr-eabi/lib/thumb/v8-m.main/nofp/libc_nano.a(lib_a-impure.o)
 *(.jcr*)
                0x000000003003012c                . = ALIGN (0x4)
                0x000000003003012c                __data_end__ = .
                0x000000000c000000                Image$$ER_CODE$$Base = __Vectors
                0x000000000c009514                Image$$ER_CODE$$Limit = (__etext + SIZEOF (.data))

.tm_clone_table
                0x000000003003012c        0x0 load address 0x000000000c009514
 .tm_clone_table
                0x000000003003012c        0x0 /home/tmdals010126/zephyr-sdk-0.17.0/arm-zephyr-eabi/bin/../lib/gcc/arm-zephyr-eabi/12.2.0/thumb/v8-m.main/nofp/crtbegin.o
 .tm_clone_table
                0x000000003003012c        0x0 /home/tmdals010126/zephyr-sdk-0.17.0/arm-zephyr-eabi/bin/../lib/gcc/arm-zephyr-eabi/12.2.0/thumb/v8-m.main/nofp/crtend.o

.igot.plt       0x000000003003012c        0x0 load address 0x000000000c009514
 .igot.plt      0x000000003003012c        0x0 /home/tmdals010126/zephyr-sdk-0.17.0/arm-zephyr-eabi/bin/../lib/gcc/arm-zephyr-eabi/12.2.0/thumb/v8-m.main/nofp/crtbegin.o

.bss            0x000000003003012c     0x3b4c load address 0x000000000c009514
                0x000000003003012c                . = ALIGN (0x4)
                0x000000003003012c                __bss_start__ = .
 *(.bss*)
 .bss           0x000000003003012c       0x1c /home/tmdals010126/zephyr-sdk-0.17.0/arm-zephyr-eabi/bin/../lib/gcc/arm-zephyr-eabi/12.2.0/thumb/v8-m.main/nofp/crtbegin.o
 .bss.g_pubkey_data
                0x0000000030030148       0x44 bl2/CMakeFiles/bl2.dir/src/thin_psa_crypto_core.o
 .bss.rsp       0x000000003003018c        0xc bl2/CMakeFiles/bl2.dir/ext/mcuboot/bl2_main.o
                0x000000003003018c                rsp
 .bss.mbedtls_mem_buf
                0x0000000030030198     0x2000 bl2/CMakeFiles/bl2.dir/ext/mcuboot/bl2_main.o
 .bss.m_uTick.0
                0x0000000030032198        0x4 bl2/CMakeFiles/bl2.dir/__/platform/ext/target/stm/common/hal/Native_Driver/tick.o
 .bss.tdelta.1  0x000000003003219c        0x4 bl2/CMakeFiles/bl2.dir/__/platform/ext/target/stm/common/hal/Native_Driver/tick.o
 .bss.t1.2      0x00000000300321a0        0x4 bl2/CMakeFiles/bl2.dir/__/platform/ext/target/stm/common/hal/Native_Driver/tick.o
 .bss.FIH_SUCCESS
                0x00000000300321a4        0x4 bl2/ext/mcuboot/bootutil/libbootutil.a(fault_injection_hardening.o)
                0x00000000300321a4                FIH_SUCCESS
 .bss.tmpbuf.1  0x00000000300321a8      0x100 bl2/ext/mcuboot/bootutil/libbootutil.a(loader.o)
 .bss.buf.2     0x00000000300322a8      0x400 bl2/ext/mcuboot/bootutil/libbootutil.a(loader.o)
 .bss.sector_buffers
                0x00000000300326a8     0x1340 bl2/ext/mcuboot/bootutil/libbootutil.a(loader.o)
 .bss.boot_data
                0x00000000300339e8       0xbc bl2/ext/mcuboot/bootutil/libbootutil.a(loader.o)
 .bss.shared_memory_init_done
                0x0000000030033aa4        0x1 bl2/ext/mcuboot/bootutil/libbootutil.a(boot_record.o)
 *fill*         0x0000000030033aa5        0x3 
 .bss.vt_cpy.0  0x0000000030033aa8        0x4 platform/libplatform_bl2.a(boot_hal_bl2.o)
 .bss.flash_option_bytes_bank2.0
                0x0000000030033aac       0x38 platform/libplatform_bl2.a(tfm_low_level_security.o)
 .bss.flash_option_bytes_bank1.1
                0x0000000030033ae4       0x38 platform/libplatform_bl2.a(tfm_low_level_security.o)
 .bss.ARM_FLASH0_STATUS
                0x0000000030033b1c        0x4 platform/libplatform_bl2.a(low_level_flash.o)
 .bss.DoubleECC_Error_Counter
                0x0000000030033b20        0x4 platform/libplatform_bl2.a(low_level_flash.o)
 .bss.users     0x0000000030033b24        0x1 platform/libplatform_bl2.a(low_level_rng.o)
 *fill*         0x0000000030033b25        0x3 
 .bss.handle    0x0000000030033b28       0x14 platform/libplatform_bl2.a(low_level_rng.o)
 .bss.stdio_is_initialized
                0x0000000030033b3c        0x4 platform/libplatform_bl2.a(uart_stdout.o)
                0x0000000030033b3c                stdio_is_initialized
 .bss.block     0x0000000030033b40       0x80 platform/libplatform_bl2.a(flash_otp_nv_counters_backend.o)
 .bss.uart_device
                0x0000000030033bc0       0x90 platform/libplatform_bl2.a(low_level_com.o)
 .bss.heap      0x0000000030033c50       0x14 bl2/mbedcrypto/library/libmbedcrypto.a(memory_buffer_alloc.o)
 .bss.__malloc_sbrk_start
                0x0000000030033c64        0x4 /home/tmdals010126/zephyr-sdk-0.17.0/arm-zephyr-eabi/bin/../lib/gcc/arm-zephyr-eabi/12.2.0/../../../../arm-zephyr-eabi/lib/thumb/v8-m.main/nofp/libc_nano.a(lib_a-nano-mallocr.o)
                0x0000000030033c64                __malloc_sbrk_start
 .bss.__malloc_free_list
                0x0000000030033c68        0x4 /home/tmdals010126/zephyr-sdk-0.17.0/arm-zephyr-eabi/bin/../lib/gcc/arm-zephyr-eabi/12.2.0/../../../../arm-zephyr-eabi/lib/thumb/v8-m.main/nofp/libc_nano.a(lib_a-nano-mallocr.o)
                0x0000000030033c68                __malloc_free_list
 .bss.__lock___malloc_recursive_mutex
                0x0000000030033c6c        0x1 /home/tmdals010126/zephyr-sdk-0.17.0/arm-zephyr-eabi/bin/../lib/gcc/arm-zephyr-eabi/12.2.0/../../../../arm-zephyr-eabi/lib/thumb/v8-m.main/nofp/libc_nano.a(lib_a-lock.o)
                0x0000000030033c6c                __lock___malloc_recursive_mutex
 .bss.__lock___sfp_recursive_mutex
                0x0000000030033c6d        0x1 /home/tmdals010126/zephyr-sdk-0.17.0/arm-zephyr-eabi/bin/../lib/gcc/arm-zephyr-eabi/12.2.0/../../../../arm-zephyr-eabi/lib/thumb/v8-m.main/nofp/libc_nano.a(lib_a-lock.o)
                0x0000000030033c6d                __lock___sfp_recursive_mutex
 .bss.__lock___sinit_recursive_mutex
                0x0000000030033c6e        0x1 /home/tmdals010126/zephyr-sdk-0.17.0/arm-zephyr-eabi/bin/../lib/gcc/arm-zephyr-eabi/12.2.0/../../../../arm-zephyr-eabi/lib/thumb/v8-m.main/nofp/libc_nano.a(lib_a-lock.o)
                0x0000000030033c6e                __lock___sinit_recursive_mutex
 *fill*         0x0000000030033c6f        0x1 
 .bss.errno     0x0000000030033c70        0x4 /home/tmdals010126/zephyr-sdk-0.17.0/arm-zephyr-eabi/bin/../lib/gcc/arm-zephyr-eabi/12.2.0/../../../../arm-zephyr-eabi/lib/thumb/v8-m.main/nofp/libc_nano.a(lib_a-reent.o)
                0x0000000030033c70                errno
 .bss.heap_end.0
                0x0000000030033c74        0x4 /home/tmdals010126/zephyr-sdk-0.17.0/arm-zephyr-eabi/bin/../lib/gcc/arm-zephyr-eabi/12.2.0/../../../../arm-zephyr-eabi/lib/thumb/v8-m.main/nofp/libnosys.a(sbrk.o)
 *(COMMON)
                0x0000000030033c78                . = ALIGN (0x4)
                0x0000000030033c78                __bss_end__ = .
                0x0000000000003b4c                bss_size = (__bss_end__ - __bss_start__)

.msp_stack      0x0000000030033c78     0x1800 load address 0x000000000c00d060
                0x0000000030033c78                . = ALIGN (0x8)
 *(.psp_stack*)
                0x0000000030035478                . = (. + __msp_stack_size__)
 *fill*         0x0000000030033c78     0x1800 
                0x0000000030035478                Image$$ARM_LIB_STACK$$ZI$$Limit = (ADDR (.msp_stack) + SIZEOF (.msp_stack))
                0x0000000030033c78                Image$$ARM_LIB_STACK$$ZI$$Base = ADDR (.msp_stack)

.heap           0x0000000030035478     0x1000 load address 0x000000000c00e860
                0x0000000030035478                . = ALIGN (0x8)
                0x0000000030035478                __end__ = .
                0x0000000030035478                PROVIDE (end = .)
                0x0000000030035478                __HeapBase = .
                0x0000000030036478                . = (. + __heap_size__)
 *fill*         0x0000000030035478     0x1000 
                0x0000000030036478                __HeapLimit = .
                0x0000000030036478                __heap_limit = .
                0x0000000030035478                PROVIDE (__stack = Image$$ARM_LIB_STACK$$ZI$$Limit)
OUTPUT(bin/bl2.axf elf32-littlearm)
LOAD linker stubs

.ARM.attributes
                0x0000000000000000       0x30
 .ARM.attributes
                0x0000000000000000       0x22 /home/tmdals010126/zephyr-sdk-0.17.0/arm-zephyr-eabi/bin/../lib/gcc/arm-zephyr-eabi/12.2.0/thumb/v8-m.main/nofp/crti.o
 .ARM.attributes
                0x0000000000000022       0x32 /home/tmdals010126/zephyr-sdk-0.17.0/arm-zephyr-eabi/bin/../lib/gcc/arm-zephyr-eabi/12.2.0/thumb/v8-m.main/nofp/crtbegin.o
 .ARM.attributes
                0x0000000000000054       0x20 /home/tmdals010126/zephyr-sdk-0.17.0/arm-zephyr-eabi/bin/../lib/gcc/arm-zephyr-eabi/12.2.0/../../../../arm-zephyr-eabi/lib/thumb/v8-m.main/nofp/crt0.o
 .ARM.attributes
                0x0000000000000074       0x34 bl2/CMakeFiles/bl2.dir/src/flash_map.o
 .ARM.attributes
                0x00000000000000a8       0x34 bl2/CMakeFiles/bl2.dir/src/security_cnt.o
 .ARM.attributes
                0x00000000000000dc       0x34 bl2/CMakeFiles/bl2.dir/src/default_flash_map.o
 .ARM.attributes
                0x0000000000000110       0x34 bl2/CMakeFiles/bl2.dir/src/provisioning.o
 .ARM.attributes
                0x0000000000000144       0x34 bl2/CMakeFiles/bl2.dir/src/thin_psa_crypto_core.o
 .ARM.attributes
                0x0000000000000178       0x34 bl2/CMakeFiles/bl2.dir/__/platform/ext/common/syscalls_stub.o
 .ARM.attributes
                0x00000000000001ac       0x34 bl2/CMakeFiles/bl2.dir/ext/mcuboot/bl2_main.o
 .ARM.attributes
                0x00000000000001e0       0x34 bl2/CMakeFiles/bl2.dir/ext/mcuboot/keys.o
 .ARM.attributes
                0x0000000000000214       0x34 bl2/CMakeFiles/bl2.dir/ext/mcuboot/flash_map_extended.o
 .ARM.attributes
                0x0000000000000248       0x34 bl2/CMakeFiles/bl2.dir/ext/mcuboot/flash_map_legacy.o
 .ARM.attributes
                0x000000000000027c       0x34 bl2/CMakeFiles/bl2.dir/__/platform/ext/target/stm/common/hal/Native_Driver/tick.o
 .ARM.attributes
                0x00000000000002b0       0x34 bl2/CMakeFiles/bl2.dir/__/platform/ext/target/stm/common/stm32l5xx/Device/Source/startup_stm32l5xx_bl2.o
 .ARM.attributes
                0x00000000000002e4       0x34 bl2/CMakeFiles/bl2.dir/__/platform/ext/target/stm/common/hal/accelerator/stm.o
 .ARM.attributes
                0x0000000000000318       0x34 bl2/ext/mcuboot/bootutil/libbootutil.a(fault_injection_hardening.o)
 .ARM.attributes
                0x000000000000034c       0x34 bl2/ext/mcuboot/bootutil/libbootutil.a(loader.o)
 .ARM.attributes
                0x0000000000000380       0x34 bl2/ext/mcuboot/bootutil/libbootutil.a(swap_scratch.o)
 .ARM.attributes
                0x00000000000003b4       0x34 bl2/ext/mcuboot/bootutil/libbootutil.a(tlv.o)
 .ARM.attributes
                0x00000000000003e8       0x34 bl2/ext/mcuboot/bootutil/libbootutil.a(boot_record.o)
 .ARM.attributes
                0x000000000000041c       0x34 bl2/ext/mcuboot/bootutil/libbootutil.a(bootutil_misc.o)
 .ARM.attributes
                0x0000000000000450       0x34 bl2/ext/mcuboot/bootutil/libbootutil.a(bootutil_public.o)
 .ARM.attributes
                0x0000000000000484       0x34 bl2/ext/mcuboot/bootutil/libbootutil.a(image_validate.o)
 .ARM.attributes
                0x00000000000004b8       0x34 bl2/ext/mcuboot/bootutil/libbootutil.a(image_ecdsa.o)
 .ARM.attributes
                0x00000000000004ec       0x34 platform/libplatform_bl2.a(system_stm32l5xx.o)
 .ARM.attributes
                0x0000000000000520       0x34 platform/libplatform_bl2.a(boot_hal_bl2.o)
 .ARM.attributes
                0x0000000000000554       0x34 platform/libplatform_bl2.a(tfm_low_level_security.o)
 .ARM.attributes
                0x0000000000000588       0x34 platform/libplatform_bl2.a(low_level_flash.o)
 .ARM.attributes
                0x00000000000005bc       0x34 platform/libplatform_bl2.a(stm32l5xx_hal.o)
 .ARM.attributes
                0x00000000000005f0       0x34 platform/libplatform_bl2.a(stm32l5xx_hal_flash.o)
 .ARM.attributes
                0x0000000000000624       0x34 platform/libplatform_bl2.a(stm32l5xx_hal_flash_ex.o)
 .ARM.attributes
                0x0000000000000658       0x34 platform/libplatform_bl2.a(stm32l5xx_hal_pwr_ex.o)
 .ARM.attributes
                0x000000000000068c       0x34 platform/libplatform_bl2.a(stm32l5xx_hal_rcc.o)
 .ARM.attributes
                0x00000000000006c0       0x34 platform/libplatform_bl2.a(stm32l5xx_hal_cortex.o)
 .ARM.attributes
                0x00000000000006f4       0x34 platform/libplatform_bl2.a(stm32l5xx_hal_gpio.o)
 .ARM.attributes
                0x0000000000000728       0x34 platform/libplatform_bl2.a(stm32l5xx_hal_gtzc.o)
 .ARM.attributes
                0x000000000000075c       0x34 platform/libplatform_bl2.a(low_level_rng.o)
 .ARM.attributes
                0x0000000000000790       0x34 platform/libplatform_bl2.a(boot_hal_bl2.o)
 .ARM.attributes
                0x00000000000007c4       0x34 platform/libplatform_bl2.a(uart_stdout.o)
 .ARM.attributes
                0x00000000000007f8       0x34 platform/libplatform_bl2.a(nv_counters.o)
 .ARM.attributes
                0x000000000000082c       0x34 platform/libplatform_bl2.a(flash_otp_nv_counters_backend.o)
 .ARM.attributes
                0x0000000000000860       0x34 platform/libplatform_bl2.a(otp_flash.o)
 .ARM.attributes
                0x0000000000000894       0x34 platform/libplatform_bl2.a(low_level_device.o)
 .ARM.attributes
                0x00000000000008c8       0x34 platform/libplatform_bl2.a(low_level_com.o)
 .ARM.attributes
                0x00000000000008fc       0x34 platform/libplatform_bl2.a(stm32l5xx_hal_rcc_ex.o)
 .ARM.attributes
                0x0000000000000930       0x34 platform/libplatform_bl2.a(stm32l5xx_hal_uart.o)
 .ARM.attributes
                0x0000000000000964       0x34 platform/libplatform_bl2.a(stm32l5xx_hal_rng.o)
 .ARM.attributes
                0x0000000000000998       0x34 bl2/mbedcrypto/library/libmbedcrypto.a(memory_buffer_alloc.o)
 .ARM.attributes
                0x00000000000009cc       0x34 bl2/mbedcrypto/library/libmbedcrypto.a(platform.o)
 .ARM.attributes
                0x0000000000000a00       0x34 bl2/mbedcrypto/library/libmbedcrypto.a(platform_util.o)
 .ARM.attributes
                0x0000000000000a34       0x34 bl2/mbedcrypto/library/libmbedcrypto.a(psa_crypto_hash.o)
 .ARM.attributes
                0x0000000000000a68       0x34 bl2/mbedcrypto/library/libmbedcrypto.a(sha256.o)
 .ARM.attributes
                0x0000000000000a9c       0x34 bl2/mbedcrypto/3rdparty/p256-m/libbl2_p256m.a(p256-m_driver_entrypoints.o)
 .ARM.attributes
                0x0000000000000ad0       0x34 bl2/mbedcrypto/3rdparty/p256-m/libbl2_p256m.a(p256-m.o)
 .ARM.attributes
                0x0000000000000b04       0x20 /home/tmdals010126/zephyr-sdk-0.17.0/arm-zephyr-eabi/bin/../lib/gcc/arm-zephyr-eabi/12.2.0/thumb/v8-m.main/nofp/libgcc.a(cmse_nonsecure_call.o)
 .ARM.attributes
                0x0000000000000b24       0x22 /home/tmdals010126/zephyr-sdk-0.17.0/arm-zephyr-eabi/bin/../lib/gcc/arm-zephyr-eabi/12.2.0/thumb/v8-m.main/nofp/libgcc.a(_aeabi_uldivmod.o)
 .ARM.attributes
                0x0000000000000b46       0x32 /home/tmdals010126/zephyr-sdk-0.17.0/arm-zephyr-eabi/bin/../lib/gcc/arm-zephyr-eabi/12.2.0/thumb/v8-m.main/nofp/libgcc.a(_udivmoddi4.o)
 .ARM.attributes
                0x0000000000000b78       0x22 /home/tmdals010126/zephyr-sdk-0.17.0/arm-zephyr-eabi/bin/../lib/gcc/arm-zephyr-eabi/12.2.0/thumb/v8-m.main/nofp/libgcc.a(_dvmd_tls.o)
 .ARM.attributes
                0x0000000000000b9a       0x32 /home/tmdals010126/zephyr-sdk-0.17.0/arm-zephyr-eabi/bin/../lib/gcc/arm-zephyr-eabi/12.2.0/../../../../arm-zephyr-eabi/lib/thumb/v8-m.main/nofp/libc_nano.a(lib_a-calloc.o)
 .ARM.attributes
                0x0000000000000bcc       0x32 /home/tmdals010126/zephyr-sdk-0.17.0/arm-zephyr-eabi/bin/../lib/gcc/arm-zephyr-eabi/12.2.0/../../../../arm-zephyr-eabi/lib/thumb/v8-m.main/nofp/libc_nano.a(lib_a-exit.o)
 .ARM.attributes
                0x0000000000000bfe       0x32 /home/tmdals010126/zephyr-sdk-0.17.0/arm-zephyr-eabi/bin/../lib/gcc/arm-zephyr-eabi/12.2.0/../../../../arm-zephyr-eabi/lib/thumb/v8-m.main/nofp/libc_nano.a(lib_a-impure.o)
 .ARM.attributes
                0x0000000000000c30       0x32 /home/tmdals010126/zephyr-sdk-0.17.0/arm-zephyr-eabi/bin/../lib/gcc/arm-zephyr-eabi/12.2.0/../../../../arm-zephyr-eabi/lib/thumb/v8-m.main/nofp/libc_nano.a(lib_a-init.o)
 .ARM.attributes
                0x0000000000000c62       0x32 /home/tmdals010126/zephyr-sdk-0.17.0/arm-zephyr-eabi/bin/../lib/gcc/arm-zephyr-eabi/12.2.0/../../../../arm-zephyr-eabi/lib/thumb/v8-m.main/nofp/libc_nano.a(lib_a-malloc.o)
 .ARM.attributes
                0x0000000000000c94       0x32 /home/tmdals010126/zephyr-sdk-0.17.0/arm-zephyr-eabi/bin/../lib/gcc/arm-zephyr-eabi/12.2.0/../../../../arm-zephyr-eabi/lib/thumb/v8-m.main/nofp/libc_nano.a(lib_a-memcmp.o)
 .ARM.attributes
                0x0000000000000cc6       0x32 /home/tmdals010126/zephyr-sdk-0.17.0/arm-zephyr-eabi/bin/../lib/gcc/arm-zephyr-eabi/12.2.0/../../../../arm-zephyr-eabi/lib/thumb/v8-m.main/nofp/libc_nano.a(lib_a-memcpy-stub.o)
 .ARM.attributes
                0x0000000000000cf8       0x32 /home/tmdals010126/zephyr-sdk-0.17.0/arm-zephyr-eabi/bin/../lib/gcc/arm-zephyr-eabi/12.2.0/../../../../arm-zephyr-eabi/lib/thumb/v8-m.main/nofp/libc_nano.a(lib_a-memset.o)
 .ARM.attributes
                0x0000000000000d2a       0x32 /home/tmdals010126/zephyr-sdk-0.17.0/arm-zephyr-eabi/bin/../lib/gcc/arm-zephyr-eabi/12.2.0/../../../../arm-zephyr-eabi/lib/thumb/v8-m.main/nofp/libc_nano.a(lib_a-nano-callocr.o)
 .ARM.attributes
                0x0000000000000d5c       0x32 /home/tmdals010126/zephyr-sdk-0.17.0/arm-zephyr-eabi/bin/../lib/gcc/arm-zephyr-eabi/12.2.0/../../../../arm-zephyr-eabi/lib/thumb/v8-m.main/nofp/libc_nano.a(lib_a-nano-freer.o)
 .ARM.attributes
                0x0000000000000d8e       0x32 /home/tmdals010126/zephyr-sdk-0.17.0/arm-zephyr-eabi/bin/../lib/gcc/arm-zephyr-eabi/12.2.0/../../../../arm-zephyr-eabi/lib/thumb/v8-m.main/nofp/libc_nano.a(lib_a-nano-mallocr.o)
 .ARM.attributes
                0x0000000000000dc0       0x32 /home/tmdals010126/zephyr-sdk-0.17.0/arm-zephyr-eabi/bin/../lib/gcc/arm-zephyr-eabi/12.2.0/../../../../arm-zephyr-eabi/lib/thumb/v8-m.main/nofp/libc_nano.a(lib_a-printf.o)
 .ARM.attributes
                0x0000000000000df2       0x32 /home/tmdals010126/zephyr-sdk-0.17.0/arm-zephyr-eabi/bin/../lib/gcc/arm-zephyr-eabi/12.2.0/../../../../arm-zephyr-eabi/lib/thumb/v8-m.main/nofp/libc_nano.a(lib_a-sbrkr.o)
 .ARM.attributes
                0x0000000000000e24       0x32 /home/tmdals010126/zephyr-sdk-0.17.0/arm-zephyr-eabi/bin/../lib/gcc/arm-zephyr-eabi/12.2.0/../../../../arm-zephyr-eabi/lib/thumb/v8-m.main/nofp/libc_nano.a(lib_a-findfp.o)
 .ARM.attributes
                0x0000000000000e56       0x32 /home/tmdals010126/zephyr-sdk-0.17.0/arm-zephyr-eabi/bin/../lib/gcc/arm-zephyr-eabi/12.2.0/../../../../arm-zephyr-eabi/lib/thumb/v8-m.main/nofp/libc_nano.a(lib_a-fwalk.o)
 .ARM.attributes
                0x0000000000000e88       0x32 /home/tmdals010126/zephyr-sdk-0.17.0/arm-zephyr-eabi/bin/../lib/gcc/arm-zephyr-eabi/12.2.0/../../../../arm-zephyr-eabi/lib/thumb/v8-m.main/nofp/libc_nano.a(lib_a-lock.o)
 .ARM.attributes
                0x0000000000000eba       0x32 /home/tmdals010126/zephyr-sdk-0.17.0/arm-zephyr-eabi/bin/../lib/gcc/arm-zephyr-eabi/12.2.0/../../../../arm-zephyr-eabi/lib/thumb/v8-m.main/nofp/libc_nano.a(lib_a-mlock.o)
 .ARM.attributes
                0x0000000000000eec       0x32 /home/tmdals010126/zephyr-sdk-0.17.0/arm-zephyr-eabi/bin/../lib/gcc/arm-zephyr-eabi/12.2.0/../../../../arm-zephyr-eabi/lib/thumb/v8-m.main/nofp/libc_nano.a(lib_a-nano-vfprintf.o)
 .ARM.attributes
                0x0000000000000f1e       0x32 /home/tmdals010126/zephyr-sdk-0.17.0/arm-zephyr-eabi/bin/../lib/gcc/arm-zephyr-eabi/12.2.0/../../../../arm-zephyr-eabi/lib/thumb/v8-m.main/nofp/libc_nano.a(lib_a-nano-vfprintf_i.o)
 .ARM.attributes
                0x0000000000000f50       0x32 /home/tmdals010126/zephyr-sdk-0.17.0/arm-zephyr-eabi/bin/../lib/gcc/arm-zephyr-eabi/12.2.0/../../../../arm-zephyr-eabi/lib/thumb/v8-m.main/nofp/libc_nano.a(lib_a-reent.o)
 .ARM.attributes
                0x0000000000000f82       0x32 /home/tmdals010126/zephyr-sdk-0.17.0/arm-zephyr-eabi/bin/../lib/gcc/arm-zephyr-eabi/12.2.0/../../../../arm-zephyr-eabi/lib/thumb/v8-m.main/nofp/libc_nano.a(lib_a-stdio.o)
 .ARM.attributes
                0x0000000000000fb4       0x32 /home/tmdals010126/zephyr-sdk-0.17.0/arm-zephyr-eabi/bin/../lib/gcc/arm-zephyr-eabi/12.2.0/../../../../arm-zephyr-eabi/lib/thumb/v8-m.main/nofp/libc_nano.a(lib_a-wbuf.o)
 .ARM.attributes
                0x0000000000000fe6       0x32 /home/tmdals010126/zephyr-sdk-0.17.0/arm-zephyr-eabi/bin/../lib/gcc/arm-zephyr-eabi/12.2.0/../../../../arm-zephyr-eabi/lib/thumb/v8-m.main/nofp/libc_nano.a(lib_a-writer.o)
 .ARM.attributes
                0x0000000000001018       0x32 /home/tmdals010126/zephyr-sdk-0.17.0/arm-zephyr-eabi/bin/../lib/gcc/arm-zephyr-eabi/12.2.0/../../../../arm-zephyr-eabi/lib/thumb/v8-m.main/nofp/libc_nano.a(lib_a-wsetup.o)
 .ARM.attributes
                0x000000000000104a       0x32 /home/tmdals010126/zephyr-sdk-0.17.0/arm-zephyr-eabi/bin/../lib/gcc/arm-zephyr-eabi/12.2.0/../../../../arm-zephyr-eabi/lib/thumb/v8-m.main/nofp/libc_nano.a(lib_a-closer.o)
 .ARM.attributes
                0x000000000000107c       0x32 /home/tmdals010126/zephyr-sdk-0.17.0/arm-zephyr-eabi/bin/../lib/gcc/arm-zephyr-eabi/12.2.0/../../../../arm-zephyr-eabi/lib/thumb/v8-m.main/nofp/libc_nano.a(lib_a-fflush.o)
 .ARM.attributes
                0x00000000000010ae       0x32 /home/tmdals010126/zephyr-sdk-0.17.0/arm-zephyr-eabi/bin/../lib/gcc/arm-zephyr-eabi/12.2.0/../../../../arm-zephyr-eabi/lib/thumb/v8-m.main/nofp/libc_nano.a(lib_a-lseekr.o)
 .ARM.attributes
                0x00000000000010e0       0x32 /home/tmdals010126/zephyr-sdk-0.17.0/arm-zephyr-eabi/bin/../lib/gcc/arm-zephyr-eabi/12.2.0/../../../../arm-zephyr-eabi/lib/thumb/v8-m.main/nofp/libc_nano.a(lib_a-makebuf.o)
 .ARM.attributes
                0x0000000000001112       0x32 /home/tmdals010126/zephyr-sdk-0.17.0/arm-zephyr-eabi/bin/../lib/gcc/arm-zephyr-eabi/12.2.0/../../../../arm-zephyr-eabi/lib/thumb/v8-m.main/nofp/libc_nano.a(lib_a-memchr-stub.o)
 .ARM.attributes
                0x0000000000001144       0x32 /home/tmdals010126/zephyr-sdk-0.17.0/arm-zephyr-eabi/bin/../lib/gcc/arm-zephyr-eabi/12.2.0/../../../../arm-zephyr-eabi/lib/thumb/v8-m.main/nofp/libc_nano.a(lib_a-readr.o)
 .ARM.attributes
                0x0000000000001176       0x32 /home/tmdals010126/zephyr-sdk-0.17.0/arm-zephyr-eabi/bin/../lib/gcc/arm-zephyr-eabi/12.2.0/../../../../arm-zephyr-eabi/lib/thumb/v8-m.main/nofp/libc_nano.a(lib_a-fstatr.o)
 .ARM.attributes
                0x00000000000011a8       0x32 /home/tmdals010126/zephyr-sdk-0.17.0/arm-zephyr-eabi/bin/../lib/gcc/arm-zephyr-eabi/12.2.0/../../../../arm-zephyr-eabi/lib/thumb/v8-m.main/nofp/libc_nano.a(lib_a-isattyr.o)
 .ARM.attributes
                0x00000000000011da       0x32 /home/tmdals010126/zephyr-sdk-0.17.0/arm-zephyr-eabi/bin/../lib/gcc/arm-zephyr-eabi/12.2.0/../../../../arm-zephyr-eabi/lib/thumb/v8-m.main/nofp/libnosys.a(sbrk.o)
 .ARM.attributes
                0x000000000000120c       0x32 /home/tmdals010126/zephyr-sdk-0.17.0/arm-zephyr-eabi/bin/../lib/gcc/arm-zephyr-eabi/12.2.0/../../../../arm-zephyr-eabi/lib/thumb/v8-m.main/nofp/libnosys.a(_exit.o)
 .ARM.attributes
                0x000000000000123e       0x32 /home/tmdals010126/zephyr-sdk-0.17.0/arm-zephyr-eabi/bin/../lib/gcc/arm-zephyr-eabi/12.2.0/thumb/v8-m.main/nofp/crtend.o
 .ARM.attributes
                0x0000000000001270       0x22 /home/tmdals010126/zephyr-sdk-0.17.0/arm-zephyr-eabi/bin/../lib/gcc/arm-zephyr-eabi/12.2.0/thumb/v8-m.main/nofp/crtn.o

.comment        0x0000000000000000       0x20
 .comment       0x0000000000000000       0x20 bl2/CMakeFiles/bl2.dir/src/flash_map.o
                                         0x21 (size before relaxing)
 .comment       0x0000000000000020       0x21 bl2/CMakeFiles/bl2.dir/src/security_cnt.o
 .comment       0x0000000000000020       0x21 bl2/CMakeFiles/bl2.dir/src/default_flash_map.o
 .comment       0x0000000000000020       0x21 bl2/CMakeFiles/bl2.dir/src/provisioning.o
 .comment       0x0000000000000020       0x21 bl2/CMakeFiles/bl2.dir/src/thin_psa_crypto_core.o
 .comment       0x0000000000000020       0x21 bl2/CMakeFiles/bl2.dir/__/platform/ext/common/syscalls_stub.o
 .comment       0x0000000000000020       0x21 bl2/CMakeFiles/bl2.dir/ext/mcuboot/bl2_main.o
 .comment       0x0000000000000020       0x21 bl2/CMakeFiles/bl2.dir/ext/mcuboot/keys.o
 .comment       0x0000000000000020       0x21 bl2/CMakeFiles/bl2.dir/ext/mcuboot/flash_map_extended.o
 .comment       0x0000000000000020       0x21 bl2/CMakeFiles/bl2.dir/ext/mcuboot/flash_map_legacy.o
 .comment       0x0000000000000020       0x21 bl2/CMakeFiles/bl2.dir/__/platform/ext/target/stm/common/hal/Native_Driver/tick.o
 .comment       0x0000000000000020       0x21 bl2/CMakeFiles/bl2.dir/__/platform/ext/target/stm/common/stm32l5xx/Device/Source/startup_stm32l5xx_bl2.o
 .comment       0x0000000000000020       0x21 bl2/CMakeFiles/bl2.dir/__/platform/ext/target/stm/common/hal/accelerator/stm.o
 .comment       0x0000000000000020       0x21 bl2/ext/mcuboot/bootutil/libbootutil.a(fault_injection_hardening.o)
 .comment       0x0000000000000020       0x21 bl2/ext/mcuboot/bootutil/libbootutil.a(loader.o)
 .comment       0x0000000000000020       0x21 bl2/ext/mcuboot/bootutil/libbootutil.a(swap_scratch.o)
 .comment       0x0000000000000020       0x21 bl2/ext/mcuboot/bootutil/libbootutil.a(tlv.o)
 .comment       0x0000000000000020       0x21 bl2/ext/mcuboot/bootutil/libbootutil.a(boot_record.o)
 .comment       0x0000000000000020       0x21 bl2/ext/mcuboot/bootutil/libbootutil.a(bootutil_misc.o)
 .comment       0x0000000000000020       0x21 bl2/ext/mcuboot/bootutil/libbootutil.a(bootutil_public.o)
 .comment       0x0000000000000020       0x21 bl2/ext/mcuboot/bootutil/libbootutil.a(image_validate.o)
 .comment       0x0000000000000020       0x21 bl2/ext/mcuboot/bootutil/libbootutil.a(image_ecdsa.o)
 .comment       0x0000000000000020       0x21 platform/libplatform_bl2.a(system_stm32l5xx.o)
 .comment       0x0000000000000020       0x21 platform/libplatform_bl2.a(boot_hal_bl2.o)
 .comment       0x0000000000000020       0x21 platform/libplatform_bl2.a(tfm_low_level_security.o)
 .comment       0x0000000000000020       0x21 platform/libplatform_bl2.a(low_level_flash.o)
 .comment       0x0000000000000020       0x21 platform/libplatform_bl2.a(stm32l5xx_hal.o)
 .comment       0x0000000000000020       0x21 platform/libplatform_bl2.a(stm32l5xx_hal_flash.o)
 .comment       0x0000000000000020       0x21 platform/libplatform_bl2.a(stm32l5xx_hal_flash_ex.o)
 .comment       0x0000000000000020       0x21 platform/libplatform_bl2.a(stm32l5xx_hal_pwr_ex.o)
 .comment       0x0000000000000020       0x21 platform/libplatform_bl2.a(stm32l5xx_hal_rcc.o)
 .comment       0x0000000000000020       0x21 platform/libplatform_bl2.a(stm32l5xx_hal_cortex.o)
 .comment       0x0000000000000020       0x21 platform/libplatform_bl2.a(stm32l5xx_hal_gpio.o)
 .comment       0x0000000000000020       0x21 platform/libplatform_bl2.a(stm32l5xx_hal_gtzc.o)
 .comment       0x0000000000000020       0x21 platform/libplatform_bl2.a(low_level_rng.o)
 .comment       0x0000000000000020       0x21 platform/libplatform_bl2.a(boot_hal_bl2.o)
 .comment       0x0000000000000020       0x21 platform/libplatform_bl2.a(uart_stdout.o)
 .comment       0x0000000000000020       0x21 platform/libplatform_bl2.a(nv_counters.o)
 .comment       0x0000000000000020       0x21 platform/libplatform_bl2.a(flash_otp_nv_counters_backend.o)
 .comment       0x0000000000000020       0x21 platform/libplatform_bl2.a(otp_flash.o)
 .comment       0x0000000000000020       0x21 platform/libplatform_bl2.a(low_level_device.o)
 .comment       0x0000000000000020       0x21 platform/libplatform_bl2.a(low_level_com.o)
 .comment       0x0000000000000020       0x21 platform/libplatform_bl2.a(stm32l5xx_hal_rcc_ex.o)
 .comment       0x0000000000000020       0x21 platform/libplatform_bl2.a(stm32l5xx_hal_uart.o)
 .comment       0x0000000000000020       0x21 platform/libplatform_bl2.a(stm32l5xx_hal_rng.o)
 .comment       0x0000000000000020       0x21 bl2/mbedcrypto/library/libmbedcrypto.a(memory_buffer_alloc.o)
 .comment       0x0000000000000020       0x21 bl2/mbedcrypto/library/libmbedcrypto.a(platform.o)
 .comment       0x0000000000000020       0x21 bl2/mbedcrypto/library/libmbedcrypto.a(platform_util.o)
 .comment       0x0000000000000020       0x21 bl2/mbedcrypto/library/libmbedcrypto.a(psa_crypto_hash.o)
 .comment       0x0000000000000020       0x21 bl2/mbedcrypto/library/libmbedcrypto.a(sha256.o)
 .comment       0x0000000000000020       0x21 bl2/mbedcrypto/3rdparty/p256-m/libbl2_p256m.a(p256-m_driver_entrypoints.o)
 .comment       0x0000000000000020       0x21 bl2/mbedcrypto/3rdparty/p256-m/libbl2_p256m.a(p256-m.o)

.debug_info     0x0000000000000000    0x290b7
 .debug_info    0x0000000000000000      0xb81 bl2/CMakeFiles/bl2.dir/src/flash_map.o
 .debug_info    0x0000000000000b81      0x45a bl2/CMakeFiles/bl2.dir/src/security_cnt.o
 .debug_info    0x0000000000000fdb      0x4f1 bl2/CMakeFiles/bl2.dir/src/default_flash_map.o
 .debug_info    0x00000000000014cc      0x58c bl2/CMakeFiles/bl2.dir/src/provisioning.o
 .debug_info    0x0000000000001a58     0x12cf bl2/CMakeFiles/bl2.dir/src/thin_psa_crypto_core.o
 .debug_info    0x0000000000002d27       0xbc bl2/CMakeFiles/bl2.dir/__/platform/ext/common/syscalls_stub.o
 .debug_info    0x0000000000002de3      0x8a2 bl2/CMakeFiles/bl2.dir/ext/mcuboot/bl2_main.o
 .debug_info    0x0000000000003685       0x8b bl2/CMakeFiles/bl2.dir/ext/mcuboot/keys.o
 .debug_info    0x0000000000003710      0x7f5 bl2/CMakeFiles/bl2.dir/ext/mcuboot/flash_map_extended.o
 .debug_info    0x0000000000003f05      0x632 bl2/CMakeFiles/bl2.dir/ext/mcuboot/flash_map_legacy.o
 .debug_info    0x0000000000004537      0x1bf bl2/CMakeFiles/bl2.dir/__/platform/ext/target/stm/common/hal/Native_Driver/tick.o
 .debug_info    0x00000000000046f6      0xba2 bl2/CMakeFiles/bl2.dir/__/platform/ext/target/stm/common/stm32l5xx/Device/Source/startup_stm32l5xx_bl2.o
 .debug_info    0x0000000000005298       0x94 bl2/CMakeFiles/bl2.dir/__/platform/ext/target/stm/common/hal/accelerator/stm.o
 .debug_info    0x000000000000532c       0x99 bl2/ext/mcuboot/bootutil/libbootutil.a(fault_injection_hardening.o)
 .debug_info    0x00000000000053c5     0x3268 bl2/ext/mcuboot/bootutil/libbootutil.a(loader.o)
 .debug_info    0x000000000000862d     0x1298 bl2/ext/mcuboot/bootutil/libbootutil.a(swap_scratch.o)
 .debug_info    0x00000000000098c5      0x7fc bl2/ext/mcuboot/bootutil/libbootutil.a(tlv.o)
 .debug_info    0x000000000000a0c1      0xb73 bl2/ext/mcuboot/bootutil/libbootutil.a(boot_record.o)
 .debug_info    0x000000000000ac34      0xc16 bl2/ext/mcuboot/bootutil/libbootutil.a(bootutil_misc.o)
 .debug_info    0x000000000000b84a     0x1b24 bl2/ext/mcuboot/bootutil/libbootutil.a(bootutil_public.o)
 .debug_info    0x000000000000d36e     0x13b0 bl2/ext/mcuboot/bootutil/libbootutil.a(image_validate.o)
 .debug_info    0x000000000000e71e      0x64b bl2/ext/mcuboot/bootutil/libbootutil.a(image_ecdsa.o)
 .debug_info    0x000000000000ed69      0x4fd platform/libplatform_bl2.a(system_stm32l5xx.o)
 .debug_info    0x000000000000f266      0xe15 platform/libplatform_bl2.a(boot_hal_bl2.o)
 .debug_info    0x000000000001007b     0x108d platform/libplatform_bl2.a(tfm_low_level_security.o)
 .debug_info    0x0000000000011108     0x11c4 platform/libplatform_bl2.a(low_level_flash.o)
 .debug_info    0x00000000000122cc      0xeff platform/libplatform_bl2.a(stm32l5xx_hal.o)
 .debug_info    0x00000000000131cb      0x8d6 platform/libplatform_bl2.a(stm32l5xx_hal_flash.o)
 .debug_info    0x0000000000013aa1     0x10a2 platform/libplatform_bl2.a(stm32l5xx_hal_flash_ex.o)
 .debug_info    0x0000000000014b43      0xf35 platform/libplatform_bl2.a(stm32l5xx_hal_pwr_ex.o)
 .debug_info    0x0000000000015a78     0x1374 platform/libplatform_bl2.a(stm32l5xx_hal_rcc.o)
 .debug_info    0x0000000000016dec     0x15cc platform/libplatform_bl2.a(stm32l5xx_hal_cortex.o)
 .debug_info    0x00000000000183b8      0x7a1 platform/libplatform_bl2.a(stm32l5xx_hal_gpio.o)
 .debug_info    0x0000000000018b59      0xdfa platform/libplatform_bl2.a(stm32l5xx_hal_gtzc.o)
 .debug_info    0x0000000000019953      0xbbd platform/libplatform_bl2.a(low_level_rng.o)
 .debug_info    0x000000000001a510      0x740 platform/libplatform_bl2.a(boot_hal_bl2.o)
 .debug_info    0x000000000001ac50      0x7b7 platform/libplatform_bl2.a(uart_stdout.o)
 .debug_info    0x000000000001b407      0xace platform/libplatform_bl2.a(nv_counters.o)
 .debug_info    0x000000000001bed5     0x11d6 platform/libplatform_bl2.a(flash_otp_nv_counters_backend.o)
 .debug_info    0x000000000001d0ab      0x718 platform/libplatform_bl2.a(otp_flash.o)
 .debug_info    0x000000000001d7c3      0x173 platform/libplatform_bl2.a(low_level_device.o)
 .debug_info    0x000000000001d936     0x1599 platform/libplatform_bl2.a(low_level_com.o)
 .debug_info    0x000000000001eecf     0x164f platform/libplatform_bl2.a(stm32l5xx_hal_rcc_ex.o)
 .debug_info    0x000000000002051e     0x26fc platform/libplatform_bl2.a(stm32l5xx_hal_uart.o)
 .debug_info    0x0000000000022c1a      0x5ea platform/libplatform_bl2.a(stm32l5xx_hal_rng.o)
 .debug_info    0x0000000000023204      0x639 bl2/mbedcrypto/library/libmbedcrypto.a(memory_buffer_alloc.o)
 .debug_info    0x000000000002383d      0x340 bl2/mbedcrypto/library/libmbedcrypto.a(platform.o)
 .debug_info    0x0000000000023b7d      0x1f1 bl2/mbedcrypto/library/libmbedcrypto.a(platform_util.o)
 .debug_info    0x0000000000023d6e      0x788 bl2/mbedcrypto/library/libmbedcrypto.a(psa_crypto_hash.o)
 .debug_info    0x00000000000244f6      0xbc4 bl2/mbedcrypto/library/libmbedcrypto.a(sha256.o)
 .debug_info    0x00000000000250ba      0xbae bl2/mbedcrypto/3rdparty/p256-m/libbl2_p256m.a(p256-m_driver_entrypoints.o)
 .debug_info    0x0000000000025c68     0x344f bl2/mbedcrypto/3rdparty/p256-m/libbl2_p256m.a(p256-m.o)

.debug_abbrev   0x0000000000000000     0x8cf6
 .debug_abbrev  0x0000000000000000      0x32d bl2/CMakeFiles/bl2.dir/src/flash_map.o
 .debug_abbrev  0x000000000000032d      0x20f bl2/CMakeFiles/bl2.dir/src/security_cnt.o
 .debug_abbrev  0x000000000000053c      0x11c bl2/CMakeFiles/bl2.dir/src/default_flash_map.o
 .debug_abbrev  0x0000000000000658      0x21c bl2/CMakeFiles/bl2.dir/src/provisioning.o
 .debug_abbrev  0x0000000000000874      0x47f bl2/CMakeFiles/bl2.dir/src/thin_psa_crypto_core.o
 .debug_abbrev  0x0000000000000cf3       0x5e bl2/CMakeFiles/bl2.dir/__/platform/ext/common/syscalls_stub.o
 .debug_abbrev  0x0000000000000d51      0x2f3 bl2/CMakeFiles/bl2.dir/ext/mcuboot/bl2_main.o
 .debug_abbrev  0x0000000000001044       0x4f bl2/CMakeFiles/bl2.dir/ext/mcuboot/keys.o
 .debug_abbrev  0x0000000000001093      0x1d5 bl2/CMakeFiles/bl2.dir/ext/mcuboot/flash_map_extended.o
 .debug_abbrev  0x0000000000001268      0x1cd bl2/CMakeFiles/bl2.dir/ext/mcuboot/flash_map_legacy.o
 .debug_abbrev  0x0000000000001435      0x14e bl2/CMakeFiles/bl2.dir/__/platform/ext/target/stm/common/hal/Native_Driver/tick.o
 .debug_abbrev  0x0000000000001583      0x1ea bl2/CMakeFiles/bl2.dir/__/platform/ext/target/stm/common/stm32l5xx/Device/Source/startup_stm32l5xx_bl2.o
 .debug_abbrev  0x000000000000176d       0x62 bl2/CMakeFiles/bl2.dir/__/platform/ext/target/stm/common/hal/accelerator/stm.o
 .debug_abbrev  0x00000000000017cf       0x4c bl2/ext/mcuboot/bootutil/libbootutil.a(fault_injection_hardening.o)
 .debug_abbrev  0x000000000000181b      0x5c4 bl2/ext/mcuboot/bootutil/libbootutil.a(loader.o)
 .debug_abbrev  0x0000000000001ddf      0x3f8 bl2/ext/mcuboot/bootutil/libbootutil.a(swap_scratch.o)
 .debug_abbrev  0x00000000000021d7      0x1e0 bl2/ext/mcuboot/bootutil/libbootutil.a(tlv.o)
 .debug_abbrev  0x00000000000023b7      0x254 bl2/ext/mcuboot/bootutil/libbootutil.a(boot_record.o)
 .debug_abbrev  0x000000000000260b      0x3d3 bl2/ext/mcuboot/bootutil/libbootutil.a(bootutil_misc.o)
 .debug_abbrev  0x00000000000029de      0x448 bl2/ext/mcuboot/bootutil/libbootutil.a(bootutil_public.o)
 .debug_abbrev  0x0000000000002e26      0x3aa bl2/ext/mcuboot/bootutil/libbootutil.a(image_validate.o)
 .debug_abbrev  0x00000000000031d0      0x289 bl2/ext/mcuboot/bootutil/libbootutil.a(image_ecdsa.o)
 .debug_abbrev  0x0000000000003459      0x12a platform/libplatform_bl2.a(system_stm32l5xx.o)
 .debug_abbrev  0x0000000000003583      0x42f platform/libplatform_bl2.a(boot_hal_bl2.o)
 .debug_abbrev  0x00000000000039b2      0x32c platform/libplatform_bl2.a(tfm_low_level_security.o)
 .debug_abbrev  0x0000000000003cde      0x425 platform/libplatform_bl2.a(low_level_flash.o)
 .debug_abbrev  0x0000000000004103      0x337 platform/libplatform_bl2.a(stm32l5xx_hal.o)
 .debug_abbrev  0x000000000000443a      0x373 platform/libplatform_bl2.a(stm32l5xx_hal_flash.o)
 .debug_abbrev  0x00000000000047ad      0x35a platform/libplatform_bl2.a(stm32l5xx_hal_flash_ex.o)
 .debug_abbrev  0x0000000000004b07      0x2e2 platform/libplatform_bl2.a(stm32l5xx_hal_pwr_ex.o)
 .debug_abbrev  0x0000000000004de9      0x315 platform/libplatform_bl2.a(stm32l5xx_hal_rcc.o)
 .debug_abbrev  0x00000000000050fe      0x3db platform/libplatform_bl2.a(stm32l5xx_hal_cortex.o)
 .debug_abbrev  0x00000000000054d9      0x235 platform/libplatform_bl2.a(stm32l5xx_hal_gpio.o)
 .debug_abbrev  0x000000000000570e      0x1f5 platform/libplatform_bl2.a(stm32l5xx_hal_gtzc.o)
 .debug_abbrev  0x0000000000005903      0x2cf platform/libplatform_bl2.a(low_level_rng.o)
 .debug_abbrev  0x0000000000005bd2      0x319 platform/libplatform_bl2.a(boot_hal_bl2.o)
 .debug_abbrev  0x0000000000005eeb      0x24e platform/libplatform_bl2.a(uart_stdout.o)
 .debug_abbrev  0x0000000000006139      0x362 platform/libplatform_bl2.a(nv_counters.o)
 .debug_abbrev  0x000000000000649b      0x425 platform/libplatform_bl2.a(flash_otp_nv_counters_backend.o)
 .debug_abbrev  0x00000000000068c0      0x2b2 platform/libplatform_bl2.a(otp_flash.o)
 .debug_abbrev  0x0000000000006b72       0xb6 platform/libplatform_bl2.a(low_level_device.o)
 .debug_abbrev  0x0000000000006c28      0x33d platform/libplatform_bl2.a(low_level_com.o)
 .debug_abbrev  0x0000000000006f65      0x3b4 platform/libplatform_bl2.a(stm32l5xx_hal_rcc_ex.o)
 .debug_abbrev  0x0000000000007319      0x3e4 platform/libplatform_bl2.a(stm32l5xx_hal_uart.o)
 .debug_abbrev  0x00000000000076fd      0x22c platform/libplatform_bl2.a(stm32l5xx_hal_rng.o)
 .debug_abbrev  0x0000000000007929      0x31c bl2/mbedcrypto/library/libmbedcrypto.a(memory_buffer_alloc.o)
 .debug_abbrev  0x0000000000007c45      0x23a bl2/mbedcrypto/library/libmbedcrypto.a(platform.o)
 .debug_abbrev  0x0000000000007e7f      0x15e bl2/mbedcrypto/library/libmbedcrypto.a(platform_util.o)
 .debug_abbrev  0x0000000000007fdd      0x2ac bl2/mbedcrypto/library/libmbedcrypto.a(psa_crypto_hash.o)
 .debug_abbrev  0x0000000000008289      0x3a9 bl2/mbedcrypto/library/libmbedcrypto.a(sha256.o)
 .debug_abbrev  0x0000000000008632      0x2f1 bl2/mbedcrypto/3rdparty/p256-m/libbl2_p256m.a(p256-m_driver_entrypoints.o)
 .debug_abbrev  0x0000000000008923      0x3d3 bl2/mbedcrypto/3rdparty/p256-m/libbl2_p256m.a(p256-m.o)

.debug_loc      0x0000000000000000    0x163ff
 .debug_loc     0x0000000000000000      0xa1c bl2/CMakeFiles/bl2.dir/src/flash_map.o
 .debug_loc     0x0000000000000a1c      0x279 bl2/CMakeFiles/bl2.dir/src/security_cnt.o
 .debug_loc     0x0000000000000c95       0xb4 bl2/CMakeFiles/bl2.dir/src/provisioning.o
 .debug_loc     0x0000000000000d49      0x9f7 bl2/CMakeFiles/bl2.dir/src/thin_psa_crypto_core.o
 .debug_loc     0x0000000000001740      0x15b bl2/CMakeFiles/bl2.dir/ext/mcuboot/bl2_main.o
 .debug_loc     0x000000000000189b      0x3da bl2/CMakeFiles/bl2.dir/ext/mcuboot/flash_map_extended.o
 .debug_loc     0x0000000000001c75       0xfa bl2/CMakeFiles/bl2.dir/ext/mcuboot/flash_map_legacy.o
 .debug_loc     0x0000000000001d6f       0x7e bl2/CMakeFiles/bl2.dir/__/platform/ext/target/stm/common/hal/Native_Driver/tick.o
 .debug_loc     0x0000000000001ded       0x6e bl2/CMakeFiles/bl2.dir/__/platform/ext/target/stm/common/stm32l5xx/Device/Source/startup_stm32l5xx_bl2.o
 .debug_loc     0x0000000000001e5b     0x20e5 bl2/ext/mcuboot/bootutil/libbootutil.a(loader.o)
 .debug_loc     0x0000000000003f40      0x9bf bl2/ext/mcuboot/bootutil/libbootutil.a(swap_scratch.o)
 .debug_loc     0x00000000000048ff      0x29f bl2/ext/mcuboot/bootutil/libbootutil.a(tlv.o)
 .debug_loc     0x0000000000004b9e      0x3a7 bl2/ext/mcuboot/bootutil/libbootutil.a(boot_record.o)
 .debug_loc     0x0000000000004f45      0x441 bl2/ext/mcuboot/bootutil/libbootutil.a(bootutil_misc.o)
 .debug_loc     0x0000000000005386      0xe47 bl2/ext/mcuboot/bootutil/libbootutil.a(bootutil_public.o)
 .debug_loc     0x00000000000061cd      0xa09 bl2/ext/mcuboot/bootutil/libbootutil.a(image_validate.o)
 .debug_loc     0x0000000000006bd6      0x3e2 bl2/ext/mcuboot/bootutil/libbootutil.a(image_ecdsa.o)
 .debug_loc     0x0000000000006fb8       0xea platform/libplatform_bl2.a(system_stm32l5xx.o)
 .debug_loc     0x00000000000070a2       0x80 platform/libplatform_bl2.a(boot_hal_bl2.o)
 .debug_loc     0x0000000000007122      0x16a platform/libplatform_bl2.a(tfm_low_level_security.o)
 .debug_loc     0x000000000000728c      0x6cd platform/libplatform_bl2.a(low_level_flash.o)
 .debug_loc     0x0000000000007959      0x34c platform/libplatform_bl2.a(stm32l5xx_hal.o)
 .debug_loc     0x0000000000007ca5      0x40c platform/libplatform_bl2.a(stm32l5xx_hal_flash.o)
 .debug_loc     0x00000000000080b1      0x977 platform/libplatform_bl2.a(stm32l5xx_hal_flash_ex.o)
 .debug_loc     0x0000000000008a28      0x61b platform/libplatform_bl2.a(stm32l5xx_hal_pwr_ex.o)
 .debug_loc     0x0000000000009043      0xa55 platform/libplatform_bl2.a(stm32l5xx_hal_rcc.o)
 .debug_loc     0x0000000000009a98      0x6cd platform/libplatform_bl2.a(stm32l5xx_hal_cortex.o)
 .debug_loc     0x000000000000a165      0x51b platform/libplatform_bl2.a(stm32l5xx_hal_gpio.o)
 .debug_loc     0x000000000000a680     0x1401 platform/libplatform_bl2.a(stm32l5xx_hal_gtzc.o)
 .debug_loc     0x000000000000ba81      0x27f platform/libplatform_bl2.a(low_level_rng.o)
 .debug_loc     0x000000000000bd00      0x10d platform/libplatform_bl2.a(boot_hal_bl2.o)
 .debug_loc     0x000000000000be0d      0x13c platform/libplatform_bl2.a(uart_stdout.o)
 .debug_loc     0x000000000000bf49      0x865 platform/libplatform_bl2.a(nv_counters.o)
 .debug_loc     0x000000000000c7ae      0xbcf platform/libplatform_bl2.a(flash_otp_nv_counters_backend.o)
 .debug_loc     0x000000000000d37d      0xd22 platform/libplatform_bl2.a(otp_flash.o)
 .debug_loc     0x000000000000e09f      0x1b2 platform/libplatform_bl2.a(low_level_com.o)
 .debug_loc     0x000000000000e251     0x157f platform/libplatform_bl2.a(stm32l5xx_hal_rcc_ex.o)
 .debug_loc     0x000000000000f7d0     0x20c8 platform/libplatform_bl2.a(stm32l5xx_hal_uart.o)
 .debug_loc     0x0000000000011898      0x389 platform/libplatform_bl2.a(stm32l5xx_hal_rng.o)
 .debug_loc     0x0000000000011c21      0x50b bl2/mbedcrypto/library/libmbedcrypto.a(memory_buffer_alloc.o)
 .debug_loc     0x000000000001212c      0x106 bl2/mbedcrypto/library/libmbedcrypto.a(platform.o)
 .debug_loc     0x0000000000012232      0x11c bl2/mbedcrypto/library/libmbedcrypto.a(platform_util.o)
 .debug_loc     0x000000000001234e      0x703 bl2/mbedcrypto/library/libmbedcrypto.a(psa_crypto_hash.o)
 .debug_loc     0x0000000000012a51      0x8a6 bl2/mbedcrypto/library/libmbedcrypto.a(sha256.o)
 .debug_loc     0x00000000000132f7      0xceb bl2/mbedcrypto/3rdparty/p256-m/libbl2_p256m.a(p256-m_driver_entrypoints.o)
 .debug_loc     0x0000000000013fe2     0x241d bl2/mbedcrypto/3rdparty/p256-m/libbl2_p256m.a(p256-m.o)

.debug_aranges  0x0000000000000000     0x19f0
 .debug_aranges
                0x0000000000000000       0x58 bl2/CMakeFiles/bl2.dir/src/flash_map.o
 .debug_aranges
                0x0000000000000058       0x30 bl2/CMakeFiles/bl2.dir/src/security_cnt.o
 .debug_aranges
                0x0000000000000088       0x18 bl2/CMakeFiles/bl2.dir/src/default_flash_map.o
 .debug_aranges
                0x00000000000000a0       0x38 bl2/CMakeFiles/bl2.dir/src/provisioning.o
 .debug_aranges
                0x00000000000000d8       0x70 bl2/CMakeFiles/bl2.dir/src/thin_psa_crypto_core.o
 .debug_aranges
                0x0000000000000148       0x58 bl2/CMakeFiles/bl2.dir/__/platform/ext/common/syscalls_stub.o
 .debug_aranges
                0x00000000000001a0       0x28 bl2/CMakeFiles/bl2.dir/ext/mcuboot/bl2_main.o
 .debug_aranges
                0x00000000000001c8       0x18 bl2/CMakeFiles/bl2.dir/ext/mcuboot/keys.o
 .debug_aranges
                0x00000000000001e0       0x58 bl2/CMakeFiles/bl2.dir/ext/mcuboot/flash_map_extended.o
 .debug_aranges
                0x0000000000000238       0x20 bl2/CMakeFiles/bl2.dir/ext/mcuboot/flash_map_legacy.o
 .debug_aranges
                0x0000000000000258       0x28 bl2/CMakeFiles/bl2.dir/__/platform/ext/target/stm/common/hal/Native_Driver/tick.o
 .debug_aranges
                0x0000000000000280      0x3b8 bl2/CMakeFiles/bl2.dir/__/platform/ext/target/stm/common/stm32l5xx/Device/Source/startup_stm32l5xx_bl2.o
 .debug_aranges
                0x0000000000000638       0x28 bl2/CMakeFiles/bl2.dir/__/platform/ext/target/stm/common/hal/accelerator/stm.o
 .debug_aranges
                0x0000000000000660       0x18 bl2/ext/mcuboot/bootutil/libbootutil.a(fault_injection_hardening.o)
 .debug_aranges
                0x0000000000000678       0x90 bl2/ext/mcuboot/bootutil/libbootutil.a(loader.o)
 .debug_aranges
                0x0000000000000708       0x48 bl2/ext/mcuboot/bootutil/libbootutil.a(swap_scratch.o)
 .debug_aranges
                0x0000000000000750       0x30 bl2/ext/mcuboot/bootutil/libbootutil.a(tlv.o)
 .debug_aranges
                0x0000000000000780       0x28 bl2/ext/mcuboot/bootutil/libbootutil.a(boot_record.o)
 .debug_aranges
                0x00000000000007a8       0x60 bl2/ext/mcuboot/bootutil/libbootutil.a(bootutil_misc.o)
 .debug_aranges
                0x0000000000000808       0xc0 bl2/ext/mcuboot/bootutil/libbootutil.a(bootutil_public.o)
 .debug_aranges
                0x00000000000008c8       0x28 bl2/ext/mcuboot/bootutil/libbootutil.a(image_validate.o)
 .debug_aranges
                0x00000000000008f0       0x20 bl2/ext/mcuboot/bootutil/libbootutil.a(image_ecdsa.o)
 .debug_aranges
                0x0000000000000910       0x28 platform/libplatform_bl2.a(system_stm32l5xx.o)
 .debug_aranges
                0x0000000000000938       0x40 platform/libplatform_bl2.a(boot_hal_bl2.o)
 .debug_aranges
                0x0000000000000978       0x30 platform/libplatform_bl2.a(tfm_low_level_security.o)
 .debug_aranges
                0x00000000000009a8       0x88 platform/libplatform_bl2.a(low_level_flash.o)
 .debug_aranges
                0x0000000000000a30      0x140 platform/libplatform_bl2.a(stm32l5xx_hal.o)
 .debug_aranges
                0x0000000000000b70       0x80 platform/libplatform_bl2.a(stm32l5xx_hal_flash.o)
 .debug_aranges
                0x0000000000000bf0       0x90 platform/libplatform_bl2.a(stm32l5xx_hal_flash_ex.o)
 .debug_aranges
                0x0000000000000c80      0x1b8 platform/libplatform_bl2.a(stm32l5xx_hal_pwr_ex.o)
 .debug_aranges
                0x0000000000000e38       0x98 platform/libplatform_bl2.a(stm32l5xx_hal_rcc.o)
 .debug_aranges
                0x0000000000000ed0       0xe0 platform/libplatform_bl2.a(stm32l5xx_hal_cortex.o)
 .debug_aranges
                0x0000000000000fb0       0x70 platform/libplatform_bl2.a(stm32l5xx_hal_gpio.o)
 .debug_aranges
                0x0000000000001020       0xb8 platform/libplatform_bl2.a(stm32l5xx_hal_gtzc.o)
 .debug_aranges
                0x00000000000010d8       0x30 platform/libplatform_bl2.a(low_level_rng.o)
 .debug_aranges
                0x0000000000001108       0x60 platform/libplatform_bl2.a(boot_hal_bl2.o)
 .debug_aranges
                0x0000000000001168       0x38 platform/libplatform_bl2.a(uart_stdout.o)
 .debug_aranges
                0x00000000000011a0       0x58 platform/libplatform_bl2.a(nv_counters.o)
 .debug_aranges
                0x00000000000011f8       0x48 platform/libplatform_bl2.a(flash_otp_nv_counters_backend.o)
 .debug_aranges
                0x0000000000001240       0x58 platform/libplatform_bl2.a(otp_flash.o)
 .debug_aranges
                0x0000000000001298       0x18 platform/libplatform_bl2.a(low_level_device.o)
 .debug_aranges
                0x00000000000012b0       0x88 platform/libplatform_bl2.a(low_level_com.o)
 .debug_aranges
                0x0000000000001338      0x110 platform/libplatform_bl2.a(stm32l5xx_hal_rcc_ex.o)
 .debug_aranges
                0x0000000000001448      0x238 platform/libplatform_bl2.a(stm32l5xx_hal_uart.o)
 .debug_aranges
                0x0000000000001680       0x80 platform/libplatform_bl2.a(stm32l5xx_hal_rng.o)
 .debug_aranges
                0x0000000000001700       0x58 bl2/mbedcrypto/library/libmbedcrypto.a(memory_buffer_alloc.o)
 .debug_aranges
                0x0000000000001758       0x50 bl2/mbedcrypto/library/libmbedcrypto.a(platform.o)
 .debug_aranges
                0x00000000000017a8       0x28 bl2/mbedcrypto/library/libmbedcrypto.a(platform_util.o)
 .debug_aranges
                0x00000000000017d0       0x48 bl2/mbedcrypto/library/libmbedcrypto.a(psa_crypto_hash.o)
 .debug_aranges
                0x0000000000001818       0x58 bl2/mbedcrypto/library/libmbedcrypto.a(sha256.o)
 .debug_aranges
                0x0000000000001870       0x50 bl2/mbedcrypto/3rdparty/p256-m/libbl2_p256m.a(p256-m_driver_entrypoints.o)
 .debug_aranges
                0x00000000000018c0      0x130 bl2/mbedcrypto/3rdparty/p256-m/libbl2_p256m.a(p256-m.o)

.debug_ranges   0x0000000000000000     0x2a60
 .debug_ranges  0x0000000000000000       0x48 bl2/CMakeFiles/bl2.dir/src/flash_map.o
 .debug_ranges  0x0000000000000048       0x68 bl2/CMakeFiles/bl2.dir/src/security_cnt.o
 .debug_ranges  0x00000000000000b0       0x40 bl2/CMakeFiles/bl2.dir/src/provisioning.o
 .debug_ranges  0x00000000000000f0      0x150 bl2/CMakeFiles/bl2.dir/src/thin_psa_crypto_core.o
 .debug_ranges  0x0000000000000240       0x48 bl2/CMakeFiles/bl2.dir/__/platform/ext/common/syscalls_stub.o
 .debug_ranges  0x0000000000000288       0x30 bl2/CMakeFiles/bl2.dir/ext/mcuboot/bl2_main.o
 .debug_ranges  0x00000000000002b8       0x48 bl2/CMakeFiles/bl2.dir/ext/mcuboot/flash_map_extended.o
 .debug_ranges  0x0000000000000300       0x10 bl2/CMakeFiles/bl2.dir/ext/mcuboot/flash_map_legacy.o
 .debug_ranges  0x0000000000000310       0x18 bl2/CMakeFiles/bl2.dir/__/platform/ext/target/stm/common/hal/Native_Driver/tick.o
 .debug_ranges  0x0000000000000328      0x428 bl2/CMakeFiles/bl2.dir/__/platform/ext/target/stm/common/stm32l5xx/Device/Source/startup_stm32l5xx_bl2.o
 .debug_ranges  0x0000000000000750       0x18 bl2/CMakeFiles/bl2.dir/__/platform/ext/target/stm/common/hal/accelerator/stm.o
 .debug_ranges  0x0000000000000768      0x458 bl2/ext/mcuboot/bootutil/libbootutil.a(loader.o)
 .debug_ranges  0x0000000000000bc0      0x140 bl2/ext/mcuboot/bootutil/libbootutil.a(swap_scratch.o)
 .debug_ranges  0x0000000000000d00       0x20 bl2/ext/mcuboot/bootutil/libbootutil.a(tlv.o)
 .debug_ranges  0x0000000000000d20       0x18 bl2/ext/mcuboot/bootutil/libbootutil.a(boot_record.o)
 .debug_ranges  0x0000000000000d38       0x98 bl2/ext/mcuboot/bootutil/libbootutil.a(bootutil_misc.o)
 .debug_ranges  0x0000000000000dd0      0x1a8 bl2/ext/mcuboot/bootutil/libbootutil.a(bootutil_public.o)
 .debug_ranges  0x0000000000000f78       0x70 bl2/ext/mcuboot/bootutil/libbootutil.a(image_validate.o)
 .debug_ranges  0x0000000000000fe8       0x98 bl2/ext/mcuboot/bootutil/libbootutil.a(image_ecdsa.o)
 .debug_ranges  0x0000000000001080       0x18 platform/libplatform_bl2.a(system_stm32l5xx.o)
 .debug_ranges  0x0000000000001098       0x70 platform/libplatform_bl2.a(boot_hal_bl2.o)
 .debug_ranges  0x0000000000001108      0x108 platform/libplatform_bl2.a(tfm_low_level_security.o)
 .debug_ranges  0x0000000000001210      0x120 platform/libplatform_bl2.a(low_level_flash.o)
 .debug_ranges  0x0000000000001330      0x130 platform/libplatform_bl2.a(stm32l5xx_hal.o)
 .debug_ranges  0x0000000000001460       0x70 platform/libplatform_bl2.a(stm32l5xx_hal_flash.o)
 .debug_ranges  0x00000000000014d0      0x148 platform/libplatform_bl2.a(stm32l5xx_hal_flash_ex.o)
 .debug_ranges  0x0000000000001618      0x1a8 platform/libplatform_bl2.a(stm32l5xx_hal_pwr_ex.o)
 .debug_ranges  0x00000000000017c0       0xe8 platform/libplatform_bl2.a(stm32l5xx_hal_rcc.o)
 .debug_ranges  0x00000000000018a8      0x1e8 platform/libplatform_bl2.a(stm32l5xx_hal_cortex.o)
 .debug_ranges  0x0000000000001a90       0x60 platform/libplatform_bl2.a(stm32l5xx_hal_gpio.o)
 .debug_ranges  0x0000000000001af0       0xa8 platform/libplatform_bl2.a(stm32l5xx_hal_gtzc.o)
 .debug_ranges  0x0000000000001b98       0xb0 platform/libplatform_bl2.a(low_level_rng.o)
 .debug_ranges  0x0000000000001c48       0x68 platform/libplatform_bl2.a(boot_hal_bl2.o)
 .debug_ranges  0x0000000000001cb0       0x28 platform/libplatform_bl2.a(uart_stdout.o)
 .debug_ranges  0x0000000000001cd8       0x78 platform/libplatform_bl2.a(nv_counters.o)
 .debug_ranges  0x0000000000001d50       0xc0 platform/libplatform_bl2.a(flash_otp_nv_counters_backend.o)
 .debug_ranges  0x0000000000001e10       0x48 platform/libplatform_bl2.a(otp_flash.o)
 .debug_ranges  0x0000000000001e58       0xd8 platform/libplatform_bl2.a(low_level_com.o)
 .debug_ranges  0x0000000000001f30      0x1b0 platform/libplatform_bl2.a(stm32l5xx_hal_rcc_ex.o)
 .debug_ranges  0x00000000000020e0      0x258 platform/libplatform_bl2.a(stm32l5xx_hal_uart.o)
 .debug_ranges  0x0000000000002338       0x70 platform/libplatform_bl2.a(stm32l5xx_hal_rng.o)
 .debug_ranges  0x00000000000023a8       0x60 bl2/mbedcrypto/library/libmbedcrypto.a(memory_buffer_alloc.o)
 .debug_ranges  0x0000000000002408       0x40 bl2/mbedcrypto/library/libmbedcrypto.a(platform.o)
 .debug_ranges  0x0000000000002448       0x18 bl2/mbedcrypto/library/libmbedcrypto.a(platform_util.o)
 .debug_ranges  0x0000000000002460       0x50 bl2/mbedcrypto/library/libmbedcrypto.a(psa_crypto_hash.o)
 .debug_ranges  0x00000000000024b0      0x198 bl2/mbedcrypto/library/libmbedcrypto.a(sha256.o)
 .debug_ranges  0x0000000000002648       0x88 bl2/mbedcrypto/3rdparty/p256-m/libbl2_p256m.a(p256-m_driver_entrypoints.o)
 .debug_ranges  0x00000000000026d0      0x390 bl2/mbedcrypto/3rdparty/p256-m/libbl2_p256m.a(p256-m.o)

.debug_line     0x0000000000000000    0x1c209
 .debug_line    0x0000000000000000      0x836 bl2/CMakeFiles/bl2.dir/src/flash_map.o
 .debug_line    0x0000000000000836      0x3a0 bl2/CMakeFiles/bl2.dir/src/security_cnt.o
 .debug_line    0x0000000000000bd6      0x244 bl2/CMakeFiles/bl2.dir/src/default_flash_map.o
 .debug_line    0x0000000000000e1a      0x3a5 bl2/CMakeFiles/bl2.dir/src/provisioning.o
 .debug_line    0x00000000000011bf      0x877 bl2/CMakeFiles/bl2.dir/src/thin_psa_crypto_core.o
 .debug_line    0x0000000000001a36      0x112 bl2/CMakeFiles/bl2.dir/__/platform/ext/common/syscalls_stub.o
 .debug_line    0x0000000000001b48      0x78c bl2/CMakeFiles/bl2.dir/ext/mcuboot/bl2_main.o
 .debug_line    0x00000000000022d4       0xdd bl2/CMakeFiles/bl2.dir/ext/mcuboot/keys.o
 .debug_line    0x00000000000023b1      0x484 bl2/CMakeFiles/bl2.dir/ext/mcuboot/flash_map_extended.o
 .debug_line    0x0000000000002835      0x379 bl2/CMakeFiles/bl2.dir/ext/mcuboot/flash_map_legacy.o
 .debug_line    0x0000000000002bae      0x3cf bl2/CMakeFiles/bl2.dir/__/platform/ext/target/stm/common/hal/Native_Driver/tick.o
 .debug_line    0x0000000000002f7d      0xfde bl2/CMakeFiles/bl2.dir/__/platform/ext/target/stm/common/stm32l5xx/Device/Source/startup_stm32l5xx_bl2.o
 .debug_line    0x0000000000003f5b       0xc3 bl2/CMakeFiles/bl2.dir/__/platform/ext/target/stm/common/hal/accelerator/stm.o
 .debug_line    0x000000000000401e       0xf4 bl2/ext/mcuboot/bootutil/libbootutil.a(fault_injection_hardening.o)
 .debug_line    0x0000000000004112     0x178f bl2/ext/mcuboot/bootutil/libbootutil.a(loader.o)
 .debug_line    0x00000000000058a1      0x9ee bl2/ext/mcuboot/bootutil/libbootutil.a(swap_scratch.o)
 .debug_line    0x000000000000628f      0x475 bl2/ext/mcuboot/bootutil/libbootutil.a(tlv.o)
 .debug_line    0x0000000000006704      0x58d bl2/ext/mcuboot/bootutil/libbootutil.a(boot_record.o)
 .debug_line    0x0000000000006c91      0x6a0 bl2/ext/mcuboot/bootutil/libbootutil.a(bootutil_misc.o)
 .debug_line    0x0000000000007331      0xd0b bl2/ext/mcuboot/bootutil/libbootutil.a(bootutil_public.o)
 .debug_line    0x000000000000803c      0x8db bl2/ext/mcuboot/bootutil/libbootutil.a(image_validate.o)
 .debug_line    0x0000000000008917      0x4ae bl2/ext/mcuboot/bootutil/libbootutil.a(image_ecdsa.o)
 .debug_line    0x0000000000008dc5      0x313 platform/libplatform_bl2.a(system_stm32l5xx.o)
 .debug_line    0x00000000000090d8      0x984 platform/libplatform_bl2.a(boot_hal_bl2.o)
 .debug_line    0x0000000000009a5c      0x8f2 platform/libplatform_bl2.a(tfm_low_level_security.o)
 .debug_line    0x000000000000a34e      0xa3f platform/libplatform_bl2.a(low_level_flash.o)
 .debug_line    0x000000000000ad8d      0x8ec platform/libplatform_bl2.a(stm32l5xx_hal.o)
 .debug_line    0x000000000000b679      0x8a1 platform/libplatform_bl2.a(stm32l5xx_hal_flash.o)
 .debug_line    0x000000000000bf1a      0xf46 platform/libplatform_bl2.a(stm32l5xx_hal_flash_ex.o)
 .debug_line    0x000000000000ce60      0xc76 platform/libplatform_bl2.a(stm32l5xx_hal_pwr_ex.o)
 .debug_line    0x000000000000dad6     0x1375 platform/libplatform_bl2.a(stm32l5xx_hal_rcc.o)
 .debug_line    0x000000000000ee4b      0xb21 platform/libplatform_bl2.a(stm32l5xx_hal_cortex.o)
 .debug_line    0x000000000000f96c      0x94e platform/libplatform_bl2.a(stm32l5xx_hal_gpio.o)
 .debug_line    0x00000000000102ba      0xfe8 platform/libplatform_bl2.a(stm32l5xx_hal_gtzc.o)
 .debug_line    0x00000000000112a2      0x584 platform/libplatform_bl2.a(low_level_rng.o)
 .debug_line    0x0000000000011826      0x57a platform/libplatform_bl2.a(boot_hal_bl2.o)
 .debug_line    0x0000000000011da0      0x2c1 platform/libplatform_bl2.a(uart_stdout.o)
 .debug_line    0x0000000000012061      0x64d platform/libplatform_bl2.a(nv_counters.o)
 .debug_line    0x00000000000126ae      0x8d8 platform/libplatform_bl2.a(flash_otp_nv_counters_backend.o)
 .debug_line    0x0000000000012f86      0x59e platform/libplatform_bl2.a(otp_flash.o)
 .debug_line    0x0000000000013524      0x211 platform/libplatform_bl2.a(low_level_device.o)
 .debug_line    0x0000000000013735      0x5f1 platform/libplatform_bl2.a(low_level_com.o)
 .debug_line    0x0000000000013d26     0x1b41 platform/libplatform_bl2.a(stm32l5xx_hal_rcc_ex.o)
 .debug_line    0x0000000000015867     0x2b28 platform/libplatform_bl2.a(stm32l5xx_hal_uart.o)
 .debug_line    0x000000000001838f      0x850 platform/libplatform_bl2.a(stm32l5xx_hal_rng.o)
 .debug_line    0x0000000000018bdf      0x70f bl2/mbedcrypto/library/libmbedcrypto.a(memory_buffer_alloc.o)
 .debug_line    0x00000000000192ee      0x269 bl2/mbedcrypto/library/libmbedcrypto.a(platform.o)
 .debug_line    0x0000000000019557      0x1ee bl2/mbedcrypto/library/libmbedcrypto.a(platform_util.o)
 .debug_line    0x0000000000019745      0x597 bl2/mbedcrypto/library/libmbedcrypto.a(psa_crypto_hash.o)
 .debug_line    0x0000000000019cdc      0xcb8 bl2/mbedcrypto/library/libmbedcrypto.a(sha256.o)
 .debug_line    0x000000000001a994      0x6cc bl2/mbedcrypto/3rdparty/p256-m/libbl2_p256m.a(p256-m_driver_entrypoints.o)
 .debug_line    0x000000000001b060     0x11a9 bl2/mbedcrypto/3rdparty/p256-m/libbl2_p256m.a(p256-m.o)

.debug_str      0x0000000000000000     0xa1bb
 .debug_str     0x0000000000000000      0x515 bl2/CMakeFiles/bl2.dir/src/flash_map.o
                                        0x690 (size before relaxing)
 .debug_str     0x0000000000000515      0x373 bl2/CMakeFiles/bl2.dir/src/security_cnt.o
                                        0x562 (size before relaxing)
 .debug_str     0x0000000000000888       0x73 bl2/CMakeFiles/bl2.dir/src/default_flash_map.o
                                        0x507 (size before relaxing)
 .debug_str     0x00000000000008fb      0x5ab bl2/CMakeFiles/bl2.dir/src/provisioning.o
                                        0x836 (size before relaxing)
 .debug_str     0x0000000000000ea6      0x5e8 bl2/CMakeFiles/bl2.dir/src/thin_psa_crypto_core.o
                                        0xcea (size before relaxing)
 .debug_str     0x000000000000148e       0x8d bl2/CMakeFiles/bl2.dir/__/platform/ext/common/syscalls_stub.o
                                        0x226 (size before relaxing)
 .debug_str     0x000000000000151b      0x2a3 bl2/CMakeFiles/bl2.dir/ext/mcuboot/bl2_main.o
                                        0x6ed (size before relaxing)
 .debug_str     0x00000000000017be       0x6d bl2/CMakeFiles/bl2.dir/ext/mcuboot/keys.o
                                        0x1f7 (size before relaxing)
 .debug_str     0x000000000000182b      0x163 bl2/CMakeFiles/bl2.dir/ext/mcuboot/flash_map_extended.o
                                        0x60d (size before relaxing)
 .debug_str     0x000000000000198e       0x9c bl2/CMakeFiles/bl2.dir/ext/mcuboot/flash_map_legacy.o
                                        0x537 (size before relaxing)
 .debug_str     0x0000000000001a2a      0x11d bl2/CMakeFiles/bl2.dir/__/platform/ext/target/stm/common/hal/Native_Driver/tick.o
                                        0x2b6 (size before relaxing)
 .debug_str     0x0000000000001b47      0x9fc bl2/CMakeFiles/bl2.dir/__/platform/ext/target/stm/common/stm32l5xx/Device/Source/startup_stm32l5xx_bl2.o
                                        0xc13 (size before relaxing)
 .debug_str     0x0000000000002543       0xb2 bl2/CMakeFiles/bl2.dir/__/platform/ext/target/stm/common/hal/accelerator/stm.o
                                        0x237 (size before relaxing)
 .debug_str     0x00000000000025f5       0x8e bl2/ext/mcuboot/bootutil/libbootutil.a(fault_injection_hardening.o)
                                        0x1af (size before relaxing)
 .debug_str     0x0000000000002683      0x710 bl2/ext/mcuboot/bootutil/libbootutil.a(loader.o)
                                        0xeed (size before relaxing)
 .debug_str     0x0000000000002d93      0x235 bl2/ext/mcuboot/bootutil/libbootutil.a(swap_scratch.o)
                                        0x944 (size before relaxing)
 .debug_str     0x0000000000002fc8       0xa7 bl2/ext/mcuboot/bootutil/libbootutil.a(tlv.o)
                                        0x618 (size before relaxing)
 .debug_str     0x000000000000306f      0x20c bl2/ext/mcuboot/bootutil/libbootutil.a(boot_record.o)
                                        0x7ea (size before relaxing)
 .debug_str     0x000000000000327b      0x1b0 bl2/ext/mcuboot/bootutil/libbootutil.a(bootutil_misc.o)
                                        0x6eb (size before relaxing)
 .debug_str     0x000000000000342b      0x29c bl2/ext/mcuboot/bootutil/libbootutil.a(bootutil_public.o)
                                        0xa1d (size before relaxing)
 .debug_str     0x00000000000036c7      0x20b bl2/ext/mcuboot/bootutil/libbootutil.a(image_validate.o)
                                        0xa0f (size before relaxing)
 .debug_str     0x00000000000038d2      0x162 bl2/ext/mcuboot/bootutil/libbootutil.a(image_ecdsa.o)
                                        0x413 (size before relaxing)
 .debug_str     0x0000000000003a34      0x37a platform/libplatform_bl2.a(system_stm32l5xx.o)
                                        0x485 (size before relaxing)
 .debug_str     0x0000000000003dae      0x35a platform/libplatform_bl2.a(boot_hal_bl2.o)
                                        0xa51 (size before relaxing)
 .debug_str     0x0000000000004108      0x4e9 platform/libplatform_bl2.a(tfm_low_level_security.o)
                                        0x987 (size before relaxing)
 .debug_str     0x00000000000045f1      0x34d platform/libplatform_bl2.a(low_level_flash.o)
                                        0x9ee (size before relaxing)
 .debug_str     0x000000000000493e      0xaa8 platform/libplatform_bl2.a(stm32l5xx_hal.o)
                                        0xf65 (size before relaxing)
 .debug_str     0x00000000000053e6      0x21d platform/libplatform_bl2.a(stm32l5xx_hal_flash.o)
                                        0x614 (size before relaxing)
 .debug_str     0x0000000000005603      0x37b platform/libplatform_bl2.a(stm32l5xx_hal_flash_ex.o)
                                        0x91c (size before relaxing)
 .debug_str     0x000000000000597e      0x8ad platform/libplatform_bl2.a(stm32l5xx_hal_pwr_ex.o)
                                        0xb97 (size before relaxing)
 .debug_str     0x000000000000622b      0x2df platform/libplatform_bl2.a(stm32l5xx_hal_rcc.o)
                                        0xa84 (size before relaxing)
 .debug_str     0x000000000000650a      0x521 platform/libplatform_bl2.a(stm32l5xx_hal_cortex.o)
                                        0xf3f (size before relaxing)
 .debug_str     0x0000000000006a2b      0x1da platform/libplatform_bl2.a(stm32l5xx_hal_gpio.o)
                                        0x517 (size before relaxing)
 .debug_str     0x0000000000006c05      0x493 platform/libplatform_bl2.a(stm32l5xx_hal_gtzc.o)
                                        0x7ec (size before relaxing)
 .debug_str     0x0000000000007098      0x4d7 platform/libplatform_bl2.a(low_level_rng.o)
                                        0x95e (size before relaxing)
 .debug_str     0x000000000000756f       0x79 platform/libplatform_bl2.a(boot_hal_bl2.o)
                                        0x670 (size before relaxing)
 .debug_str     0x00000000000075e8      0x28d platform/libplatform_bl2.a(uart_stdout.o)
                                        0x5f1 (size before relaxing)
 .debug_str     0x0000000000007875      0x202 platform/libplatform_bl2.a(nv_counters.o)
                                        0x96b (size before relaxing)
 .debug_str     0x0000000000007a77      0x210 platform/libplatform_bl2.a(flash_otp_nv_counters_backend.o)
                                        0x7da (size before relaxing)
 .debug_str     0x0000000000007c87      0x1bb platform/libplatform_bl2.a(otp_flash.o)
                                        0x898 (size before relaxing)
 .debug_str     0x0000000000007e42       0xa7 platform/libplatform_bl2.a(low_level_device.o)
                                        0x2a2 (size before relaxing)
 .debug_str     0x0000000000007ee9      0x6a9 platform/libplatform_bl2.a(low_level_com.o)
                                        0xf52 (size before relaxing)
 .debug_str     0x0000000000008592      0x56c platform/libplatform_bl2.a(stm32l5xx_hal_rcc_ex.o)
                                        0xde5 (size before relaxing)
 .debug_str     0x0000000000008afe      0x902 platform/libplatform_bl2.a(stm32l5xx_hal_uart.o)
                                       0x12e2 (size before relaxing)
 .debug_str     0x0000000000009400      0x182 platform/libplatform_bl2.a(stm32l5xx_hal_rng.o)
                                        0x4d8 (size before relaxing)
 .debug_str     0x0000000000009582      0x263 bl2/mbedcrypto/library/libmbedcrypto.a(memory_buffer_alloc.o)
                                        0x38d (size before relaxing)
 .debug_str     0x00000000000097e5      0x138 bl2/mbedcrypto/library/libmbedcrypto.a(platform.o)
                                        0x332 (size before relaxing)
 .debug_str     0x000000000000991d       0x75 bl2/mbedcrypto/library/libmbedcrypto.a(platform_util.o)
                                        0x235 (size before relaxing)
 .debug_str     0x0000000000009992      0x143 bl2/mbedcrypto/library/libmbedcrypto.a(psa_crypto_hash.o)
                                        0x44e (size before relaxing)
 .debug_str     0x0000000000009ad5      0x110 bl2/mbedcrypto/library/libmbedcrypto.a(sha256.o)
                                        0x3cd (size before relaxing)
 .debug_str     0x0000000000009be5      0x2e5 bl2/mbedcrypto/3rdparty/p256-m/libbl2_p256m.a(p256-m_driver_entrypoints.o)
                                        0x6b4 (size before relaxing)
 .debug_str     0x0000000000009eca      0x2f1 bl2/mbedcrypto/3rdparty/p256-m/libbl2_p256m.a(p256-m.o)
                                        0x5c2 (size before relaxing)

.debug_frame    0x0000000000000000     0x47cc
 .debug_frame   0x0000000000000000       0xfc bl2/CMakeFiles/bl2.dir/src/flash_map.o
 .debug_frame   0x00000000000000fc       0x60 bl2/CMakeFiles/bl2.dir/src/security_cnt.o
 .debug_frame   0x000000000000015c       0x7c bl2/CMakeFiles/bl2.dir/src/provisioning.o
 .debug_frame   0x00000000000001d8      0x11c bl2/CMakeFiles/bl2.dir/src/thin_psa_crypto_core.o
 .debug_frame   0x00000000000002f4       0x90 bl2/CMakeFiles/bl2.dir/__/platform/ext/common/syscalls_stub.o
 .debug_frame   0x0000000000000384       0x44 bl2/CMakeFiles/bl2.dir/ext/mcuboot/bl2_main.o
 .debug_frame   0x00000000000003c8       0xc4 bl2/CMakeFiles/bl2.dir/ext/mcuboot/flash_map_extended.o
 .debug_frame   0x000000000000048c       0x38 bl2/CMakeFiles/bl2.dir/ext/mcuboot/flash_map_legacy.o
 .debug_frame   0x00000000000004c4       0x3c bl2/CMakeFiles/bl2.dir/__/platform/ext/target/stm/common/hal/Native_Driver/tick.o
 .debug_frame   0x0000000000000500      0x758 bl2/CMakeFiles/bl2.dir/__/platform/ext/target/stm/common/stm32l5xx/Device/Source/startup_stm32l5xx_bl2.o
 .debug_frame   0x0000000000000c58       0x30 bl2/CMakeFiles/bl2.dir/__/platform/ext/target/stm/common/hal/accelerator/stm.o
 .debug_frame   0x0000000000000c88      0x1d8 bl2/ext/mcuboot/bootutil/libbootutil.a(loader.o)
 .debug_frame   0x0000000000000e60       0xd8 bl2/ext/mcuboot/bootutil/libbootutil.a(swap_scratch.o)
 .debug_frame   0x0000000000000f38       0x70 bl2/ext/mcuboot/bootutil/libbootutil.a(tlv.o)
 .debug_frame   0x0000000000000fa8       0x64 bl2/ext/mcuboot/bootutil/libbootutil.a(boot_record.o)
 .debug_frame   0x000000000000100c       0xd4 bl2/ext/mcuboot/bootutil/libbootutil.a(bootutil_misc.o)
 .debug_frame   0x00000000000010e0      0x230 bl2/ext/mcuboot/bootutil/libbootutil.a(bootutil_public.o)
 .debug_frame   0x0000000000001310       0x64 bl2/ext/mcuboot/bootutil/libbootutil.a(image_validate.o)
 .debug_frame   0x0000000000001374       0x3c bl2/ext/mcuboot/bootutil/libbootutil.a(image_ecdsa.o)
 .debug_frame   0x00000000000013b0       0x30 platform/libplatform_bl2.a(system_stm32l5xx.o)
 .debug_frame   0x00000000000013e0       0x80 platform/libplatform_bl2.a(boot_hal_bl2.o)
 .debug_frame   0x0000000000001460       0x78 platform/libplatform_bl2.a(tfm_low_level_security.o)
 .debug_frame   0x00000000000014d8      0x150 platform/libplatform_bl2.a(low_level_flash.o)
 .debug_frame   0x0000000000001628      0x2a0 platform/libplatform_bl2.a(stm32l5xx_hal.o)
 .debug_frame   0x00000000000018c8      0x130 platform/libplatform_bl2.a(stm32l5xx_hal_flash.o)
 .debug_frame   0x00000000000019f8      0x174 platform/libplatform_bl2.a(stm32l5xx_hal_flash_ex.o)
 .debug_frame   0x0000000000001b6c      0x36c platform/libplatform_bl2.a(stm32l5xx_hal_pwr_ex.o)
 .debug_frame   0x0000000000001ed8      0x1a4 platform/libplatform_bl2.a(stm32l5xx_hal_rcc.o)
 .debug_frame   0x000000000000207c      0x1d0 platform/libplatform_bl2.a(stm32l5xx_hal_cortex.o)
 .debug_frame   0x000000000000224c      0x11c platform/libplatform_bl2.a(stm32l5xx_hal_gpio.o)
 .debug_frame   0x0000000000002368      0x1e8 platform/libplatform_bl2.a(stm32l5xx_hal_gtzc.o)
 .debug_frame   0x0000000000002550       0x74 platform/libplatform_bl2.a(low_level_rng.o)
 .debug_frame   0x00000000000025c4       0xb8 platform/libplatform_bl2.a(boot_hal_bl2.o)
 .debug_frame   0x000000000000267c       0x84 platform/libplatform_bl2.a(uart_stdout.o)
 .debug_frame   0x0000000000002700       0xf0 platform/libplatform_bl2.a(nv_counters.o)
 .debug_frame   0x00000000000027f0      0x104 platform/libplatform_bl2.a(flash_otp_nv_counters_backend.o)
 .debug_frame   0x00000000000028f4       0xc0 platform/libplatform_bl2.a(otp_flash.o)
 .debug_frame   0x00000000000029b4      0x128 platform/libplatform_bl2.a(low_level_com.o)
 .debug_frame   0x0000000000002adc      0x2f0 platform/libplatform_bl2.a(stm32l5xx_hal_rcc_ex.o)
 .debug_frame   0x0000000000002dcc      0x684 platform/libplatform_bl2.a(stm32l5xx_hal_uart.o)
 .debug_frame   0x0000000000003450      0x11c platform/libplatform_bl2.a(stm32l5xx_hal_rng.o)
 .debug_frame   0x000000000000356c       0xd8 bl2/mbedcrypto/library/libmbedcrypto.a(memory_buffer_alloc.o)
 .debug_frame   0x0000000000003644       0x80 bl2/mbedcrypto/library/libmbedcrypto.a(platform.o)
 .debug_frame   0x00000000000036c4       0x44 bl2/mbedcrypto/library/libmbedcrypto.a(platform_util.o)
 .debug_frame   0x0000000000003708       0xdc bl2/mbedcrypto/library/libmbedcrypto.a(psa_crypto_hash.o)
 .debug_frame   0x00000000000037e4       0xf4 bl2/mbedcrypto/library/libmbedcrypto.a(sha256.o)
 .debug_frame   0x00000000000038d8      0x118 bl2/mbedcrypto/3rdparty/p256-m/libbl2_p256m.a(p256-m_driver_entrypoints.o)
 .debug_frame   0x00000000000039f0      0x478 bl2/mbedcrypto/3rdparty/p256-m/libbl2_p256m.a(p256-m.o)
 .debug_frame   0x0000000000003e68       0x2c /home/tmdals010126/zephyr-sdk-0.17.0/arm-zephyr-eabi/bin/../lib/gcc/arm-zephyr-eabi/12.2.0/thumb/v8-m.main/nofp/libgcc.a(_aeabi_uldivmod.o)
 .debug_frame   0x0000000000003e94       0x34 /home/tmdals010126/zephyr-sdk-0.17.0/arm-zephyr-eabi/bin/../lib/gcc/arm-zephyr-eabi/12.2.0/thumb/v8-m.main/nofp/libgcc.a(_udivmoddi4.o)
 .debug_frame   0x0000000000003ec8       0x20 /home/tmdals010126/zephyr-sdk-0.17.0/arm-zephyr-eabi/bin/../lib/gcc/arm-zephyr-eabi/12.2.0/../../../../arm-zephyr-eabi/lib/thumb/v8-m.main/nofp/libc_nano.a(lib_a-calloc.o)
 .debug_frame   0x0000000000003ee8       0x28 /home/tmdals010126/zephyr-sdk-0.17.0/arm-zephyr-eabi/bin/../lib/gcc/arm-zephyr-eabi/12.2.0/../../../../arm-zephyr-eabi/lib/thumb/v8-m.main/nofp/libc_nano.a(lib_a-exit.o)
 .debug_frame   0x0000000000003f10       0x2c /home/tmdals010126/zephyr-sdk-0.17.0/arm-zephyr-eabi/bin/../lib/gcc/arm-zephyr-eabi/12.2.0/../../../../arm-zephyr-eabi/lib/thumb/v8-m.main/nofp/libc_nano.a(lib_a-init.o)
 .debug_frame   0x0000000000003f3c       0x30 /home/tmdals010126/zephyr-sdk-0.17.0/arm-zephyr-eabi/bin/../lib/gcc/arm-zephyr-eabi/12.2.0/../../../../arm-zephyr-eabi/lib/thumb/v8-m.main/nofp/libc_nano.a(lib_a-malloc.o)
 .debug_frame   0x0000000000003f6c       0x28 /home/tmdals010126/zephyr-sdk-0.17.0/arm-zephyr-eabi/bin/../lib/gcc/arm-zephyr-eabi/12.2.0/../../../../arm-zephyr-eabi/lib/thumb/v8-m.main/nofp/libc_nano.a(lib_a-memcmp.o)
 .debug_frame   0x0000000000003f94       0x28 /home/tmdals010126/zephyr-sdk-0.17.0/arm-zephyr-eabi/bin/../lib/gcc/arm-zephyr-eabi/12.2.0/../../../../arm-zephyr-eabi/lib/thumb/v8-m.main/nofp/libc_nano.a(lib_a-memcpy-stub.o)
 .debug_frame   0x0000000000003fbc       0x20 /home/tmdals010126/zephyr-sdk-0.17.0/arm-zephyr-eabi/bin/../lib/gcc/arm-zephyr-eabi/12.2.0/../../../../arm-zephyr-eabi/lib/thumb/v8-m.main/nofp/libc_nano.a(lib_a-memset.o)
 .debug_frame   0x0000000000003fdc       0x2c /home/tmdals010126/zephyr-sdk-0.17.0/arm-zephyr-eabi/bin/../lib/gcc/arm-zephyr-eabi/12.2.0/../../../../arm-zephyr-eabi/lib/thumb/v8-m.main/nofp/libc_nano.a(lib_a-nano-callocr.o)
 .debug_frame   0x0000000000004008       0x38 /home/tmdals010126/zephyr-sdk-0.17.0/arm-zephyr-eabi/bin/../lib/gcc/arm-zephyr-eabi/12.2.0/../../../../arm-zephyr-eabi/lib/thumb/v8-m.main/nofp/libc_nano.a(lib_a-nano-freer.o)
 .debug_frame   0x0000000000004040       0x30 /home/tmdals010126/zephyr-sdk-0.17.0/arm-zephyr-eabi/bin/../lib/gcc/arm-zephyr-eabi/12.2.0/../../../../arm-zephyr-eabi/lib/thumb/v8-m.main/nofp/libc_nano.a(lib_a-nano-mallocr.o)
 .debug_frame   0x0000000000004070       0x74 /home/tmdals010126/zephyr-sdk-0.17.0/arm-zephyr-eabi/bin/../lib/gcc/arm-zephyr-eabi/12.2.0/../../../../arm-zephyr-eabi/lib/thumb/v8-m.main/nofp/libc_nano.a(lib_a-printf.o)
 .debug_frame   0x00000000000040e4       0x2c /home/tmdals010126/zephyr-sdk-0.17.0/arm-zephyr-eabi/bin/../lib/gcc/arm-zephyr-eabi/12.2.0/../../../../arm-zephyr-eabi/lib/thumb/v8-m.main/nofp/libc_nano.a(lib_a-sbrkr.o)
 .debug_frame   0x0000000000004110      0x14c /home/tmdals010126/zephyr-sdk-0.17.0/arm-zephyr-eabi/bin/../lib/gcc/arm-zephyr-eabi/12.2.0/../../../../arm-zephyr-eabi/lib/thumb/v8-m.main/nofp/libc_nano.a(lib_a-findfp.o)
 .debug_frame   0x000000000000425c       0x54 /home/tmdals010126/zephyr-sdk-0.17.0/arm-zephyr-eabi/bin/../lib/gcc/arm-zephyr-eabi/12.2.0/../../../../arm-zephyr-eabi/lib/thumb/v8-m.main/nofp/libc_nano.a(lib_a-fwalk.o)
 .debug_frame   0x00000000000042b0       0xb0 /home/tmdals010126/zephyr-sdk-0.17.0/arm-zephyr-eabi/bin/../lib/gcc/arm-zephyr-eabi/12.2.0/../../../../arm-zephyr-eabi/lib/thumb/v8-m.main/nofp/libc_nano.a(lib_a-lock.o)
 .debug_frame   0x0000000000004360       0x30 /home/tmdals010126/zephyr-sdk-0.17.0/arm-zephyr-eabi/bin/../lib/gcc/arm-zephyr-eabi/12.2.0/../../../../arm-zephyr-eabi/lib/thumb/v8-m.main/nofp/libc_nano.a(lib_a-mlock.o)
 .debug_frame   0x0000000000004390       0xa8 /home/tmdals010126/zephyr-sdk-0.17.0/arm-zephyr-eabi/bin/../lib/gcc/arm-zephyr-eabi/12.2.0/../../../../arm-zephyr-eabi/lib/thumb/v8-m.main/nofp/libc_nano.a(lib_a-nano-vfprintf.o)
 .debug_frame   0x0000000000004438       0x60 /home/tmdals010126/zephyr-sdk-0.17.0/arm-zephyr-eabi/bin/../lib/gcc/arm-zephyr-eabi/12.2.0/../../../../arm-zephyr-eabi/lib/thumb/v8-m.main/nofp/libc_nano.a(lib_a-nano-vfprintf_i.o)
 .debug_frame   0x0000000000004498       0x5c /home/tmdals010126/zephyr-sdk-0.17.0/arm-zephyr-eabi/bin/../lib/gcc/arm-zephyr-eabi/12.2.0/../../../../arm-zephyr-eabi/lib/thumb/v8-m.main/nofp/libc_nano.a(lib_a-reent.o)
 .debug_frame   0x00000000000044f4       0x88 /home/tmdals010126/zephyr-sdk-0.17.0/arm-zephyr-eabi/bin/../lib/gcc/arm-zephyr-eabi/12.2.0/../../../../arm-zephyr-eabi/lib/thumb/v8-m.main/nofp/libc_nano.a(lib_a-stdio.o)
 .debug_frame   0x000000000000457c       0x40 /home/tmdals010126/zephyr-sdk-0.17.0/arm-zephyr-eabi/bin/../lib/gcc/arm-zephyr-eabi/12.2.0/../../../../arm-zephyr-eabi/lib/thumb/v8-m.main/nofp/libc_nano.a(lib_a-wbuf.o)
 .debug_frame   0x00000000000045bc       0x2c /home/tmdals010126/zephyr-sdk-0.17.0/arm-zephyr-eabi/bin/../lib/gcc/arm-zephyr-eabi/12.2.0/../../../../arm-zephyr-eabi/lib/thumb/v8-m.main/nofp/libc_nano.a(lib_a-writer.o)
 .debug_frame   0x00000000000045e8       0x2c /home/tmdals010126/zephyr-sdk-0.17.0/arm-zephyr-eabi/bin/../lib/gcc/arm-zephyr-eabi/12.2.0/../../../../arm-zephyr-eabi/lib/thumb/v8-m.main/nofp/libc_nano.a(lib_a-wsetup.o)
 .debug_frame   0x0000000000004614       0x2c /home/tmdals010126/zephyr-sdk-0.17.0/arm-zephyr-eabi/bin/../lib/gcc/arm-zephyr-eabi/12.2.0/../../../../arm-zephyr-eabi/lib/thumb/v8-m.main/nofp/libc_nano.a(lib_a-closer.o)
 .debug_frame   0x0000000000004640       0x5c /home/tmdals010126/zephyr-sdk-0.17.0/arm-zephyr-eabi/bin/../lib/gcc/arm-zephyr-eabi/12.2.0/../../../../arm-zephyr-eabi/lib/thumb/v8-m.main/nofp/libc_nano.a(lib_a-fflush.o)
 .debug_frame   0x000000000000469c       0x2c /home/tmdals010126/zephyr-sdk-0.17.0/arm-zephyr-eabi/bin/../lib/gcc/arm-zephyr-eabi/12.2.0/../../../../arm-zephyr-eabi/lib/thumb/v8-m.main/nofp/libc_nano.a(lib_a-lseekr.o)
 .debug_frame   0x00000000000046c8       0x58 /home/tmdals010126/zephyr-sdk-0.17.0/arm-zephyr-eabi/bin/../lib/gcc/arm-zephyr-eabi/12.2.0/../../../../arm-zephyr-eabi/lib/thumb/v8-m.main/nofp/libc_nano.a(lib_a-makebuf.o)
 .debug_frame   0x0000000000004720       0x28 /home/tmdals010126/zephyr-sdk-0.17.0/arm-zephyr-eabi/bin/../lib/gcc/arm-zephyr-eabi/12.2.0/../../../../arm-zephyr-eabi/lib/thumb/v8-m.main/nofp/libc_nano.a(lib_a-memchr-stub.o)
 .debug_frame   0x0000000000004748       0x2c /home/tmdals010126/zephyr-sdk-0.17.0/arm-zephyr-eabi/bin/../lib/gcc/arm-zephyr-eabi/12.2.0/../../../../arm-zephyr-eabi/lib/thumb/v8-m.main/nofp/libc_nano.a(lib_a-readr.o)
 .debug_frame   0x0000000000004774       0x2c /home/tmdals010126/zephyr-sdk-0.17.0/arm-zephyr-eabi/bin/../lib/gcc/arm-zephyr-eabi/12.2.0/../../../../arm-zephyr-eabi/lib/thumb/v8-m.main/nofp/libc_nano.a(lib_a-fstatr.o)
 .debug_frame   0x00000000000047a0       0x2c /home/tmdals010126/zephyr-sdk-0.17.0/arm-zephyr-eabi/bin/../lib/gcc/arm-zephyr-eabi/12.2.0/../../../../arm-zephyr-eabi/lib/thumb/v8-m.main/nofp/libc_nano.a(lib_a-isattyr.o)
